(lp1
S'<START>'
p2
aS'<UNK>'
p3
aS'<END>'
p4
aV\u7684
aV\u6211
aV\u4f60
aV\u4e0d
aV\u5728
aV\u4e86
aV\u4e00
aV\u662f
aV\u7740
aV\u6709
aV\u5c31
aV\u8bf4
aV\u60f3
aV\u4f1a
aV\u7231
aV\u8981
aV\u90a3
aV\u90fd
aV\u8ba9
aV\u8fd9
aV\u80fd
aV\u53ea
aV\u4eba
aV\u518d
aV(
aV)
aV\u7528
aV\u8fd8
aV\u4e5f
aV\u770b
aV\u6ca1
aV\u88ab
aV\u8c01
aV~
aV\u6211\u4eec
p5
aV\u6ca1\u6709
p6
aV\u50cf
aV\u5f88
aV\u4e2a
aV\u5374
aV\u4e0a
aV\u8fc7
aV\u5230
aV\u5979
aV\u597d
aV\u6765
aV\u591a
aV\u8d70
aV\u600e\u4e48
p7
aV\u5bf9
aV\u53bb
aV\u4ed6
aV\u5f97
aV\u592a
aV\u624d
aV\u624b
aV\u77e5\u9053
p8
aV\u8ddf
aV\u5929
aV\u7b49
aV\u79cd
aV\u4ec0\u4e48
p9
aV\u7ed9
aV\u79bb\u5f00
p10
aV\u56de\u5fc6
p11
aV\u91cc
aV\u628a
aV\u5c06
aV\u542c
aV\u4e3a
aV\u5566
aV\u5df2
aV\u5b83
aV\u5730
aV\u5df2\u7ecf
p12
aV\u8be5
aV\u98ce
aV\u5982\u679c
p13
aV\u5982
aV\u65f6\u95f4
p14
aV\u53c8
aV\u5feb
aV\u522b
aV\u96e8
aV\u5f00\u59cb
p15
aV\u53cc
aV\u51e0
aV\u7b11
aV\u8457
aV\u81ea\u5df1
p16
aV\u8fc7\u53bb
p17
aV\u6bcf
aV\u5fae\u7b11
p18
aV\u800c
aV\u4e00\u76f4
p19
aV\u56e0\u4e3a
p20
aV\u68a6
aV\u7b49\u5f85
p21
aV\u53ef\u4ee5
p22
aV\u5468\u6770\u4f26
p23
aV\u4e16\u754c
p24
aV\u540e
aV\u4e2d
aV\u4e0b
aV\u6700\u540e
p25
aV\u6700
aV\u5c0f
aV\u5f00
aV\u554a
aV\u8fd9\u6837
p26
aV\u8d77
aV\u4e24
aV\u4f46
aV\u5411
aV\u627e
aV\u53e3
aV\u6c38\u8fdc
p27
aV\u65e0
aV\uff1a
aV\u5e26
aV\u7f8e
aV\u56de
aV\u5f53
aV\u53ef\u7231
p28
aV\u98d8
aV\u611f\u89c9
p29
aV.
aV\u548c
aV\u4e3a\u4ec0\u4e48
p30
aV:
aV\u5fc3
aV\u6b65
aV\u311f
aV\u4e00\u8d77
p31
aV\u65e0\u6cd5
p32
aV\u9897
aV\u573a
aV\u61c2
aV\u5230\u5e95
p33
aV\u6545\u4e8b
p34
aV\u5e74
aV\u5fd8\u8bb0
p35
aV\u53eb
aV\u6b4c
aV\u773c\u6cea
p36
aV\u4e09
aV\u771f\u7684
p37
aV\u7275
aV\u522b\u4eba
p38
aV\u7231\u60c5
p39
aV\u5427
aV\u8fd8\u662f
p40
aV\u6bd4
aV\u4ece
aV\u5973\u4eba
p41
aV\u6c89\u9ed8
p42
aV\u9f99
aV\u7d2f
aV\u54ce\u54df
p43
aV\u60f3\u8981
p44
aV\u66f4
aV\u6162\u6162
p45
aV\u8f7b\u8f7b
p46
aV\u753b\u9762
p47
aV\u6cea
aV\u6015
aV\u8fdc
aV\u89c1
aV\u966a
aV\u5929\u7a7a
p48
aV\u8fde
aV\u8bb0\u5f97
p49
aV\u5199
aV\u53ef
aV\u8bf7
aV\u4ed6\u4eec
p50
aV\u4e00\u8def
p51
aV\u8fd9\u4e48
p52
aV\u7559
aV\u54ed
aV\u4e8b
aV\u4e0d\u7528
p53
aV\u5feb\u4e50
p54
aV\u601d\u5ff5
p55
aV\u9ebb\u70e6
p56
aV\u751f\u547d
p57
aV\u5f20
aV\u95ee
aV\u6d3b
aV\u8fb9
aV\u505c
aV\u8bdd
aV\u7b2c\u4e00
p58
aV\u96be\u8fc7
p59
aV\u5927
aV\u559c\u6b22
p60
aV\u96be
aVoh
p61
aV\u80fd\u591f
p62
aV\u5403
aV\u6e29\u67d4
p63
aV\u8336
aV\u53ea\u662f
p64
aV\u4e0e
aV\u5473\u9053
p65
aV\u529f\u592b
p66
aV\u8fdc\u65b9
p67
aV\u70b9
aV\u8c46\u8150
p68
aV\u8fd9\u4e2a
p69
aV\u51fa
aV\u53d1
aV\u5bb6
aV\u5a18\u5b50
p70
aV\u66f2
aV\u65e7
aV\u524d
aV\u611f\u52a8
p71
aV\u8868\u60c5
p72
aV\u7ee7\u7eed
p73
aV\u9700\u8981
p74
aV\u5168
aV\u56de\u5230
p75
aV\u8138
aV\u653e
aV\u773c\u775b
p76
aV\u8ddd\u79bb
p77
aV\uff01
aV\u662f\u5426
p78
aV\u7b80\u5355
p79
aV\u5b66
aV\u72e0
aV\u53e5
aV\u8eab\u8fb9
p80
aV\u7761
aV\u5462
aV\u6253\u5f00
p81
aV\u5988\u5988
p82
aV\u5206\u624b
p83
aV\u622a
aV\u5343
aV\u53d8\u6210
p84
aV\u5b89\u9759
p85
aV\u73b0\u5728
p86
aV\u5bf9\u7740
p87
aV\u6c34
aV\u9ed1\u8272
p88
aV\u660e\u767d
p89
aV\u7f8e\u4e3d
p90
aV\u6240\u6709
p91
aV\u5200
aV\u4e5f\u8bb8
p92
aV\u5931\u53bb
p93
aV\u751f\u6d3b
p94
aV\u5c1d
aV\u5e0c\u671b
p95
aV\u4f60\u4eec
p96
aV\u65f6\u5149
p97
aV\u539f\u6765
p98
aV\u7075\u9b42
p99
aV\u62ff
aV\u6709\u4e9b
p100
aV\u98d8\u79fb
p101
aV\u5b8c\u7f8e
p102
aV\u62cd
aV\u6e29\u6696
p103
aV\u80cc
aV\u4e60\u60ef
p104
aV\u5e78\u798f
p105
aV\u9633\u5149
p106
aV\u5e72
aV\u7b11\u5bb9
p107
aV\u6761
aV\u9996
aV\u6210
aV\u56de\u6765
p108
aV\u5f88\u4e45
p109
aV\u5916\u5a46
p110
aV\u6df1
aV\u7ecf\u8fc7
p111
aV\u5c5e\u4e8e
p112
aV\u773c
aV\u54e6
aV\u5fc3\u788e
p113
aV\u58f0
aV\u4e00\u5b9a
p114
aV\u51b3\u5b9a
p115
aV\u8ffd
aV\u575a\u6301
p116
aV\u8fd9\u91cc
p117
aV\u5fd8
aV\u731c
aV\u96be\u9053
p118
aV\u97f3\u4e50
p119
aV\u5149
aV\u671f\u5f85
p120
aV\u51b7
aV\u8f6c\u8eab
p121
aV\u9ed1
aV\u9760
aV\u9ed8\u9ed8
p122
aV\u8def
aV\u6389
aV\u7237\u7237
p123
aV\u75af\u72c2
p124
aV\u6c14
aV\u8bfb
aV\u4e86\u89e3
p125
aV\u505a
aV\u9759\u9759
p126
aV\u4f24
aV\u2026
aV\u751c\u871c
p127
aV\u68cd
aV\u5566\u513f
p128
aV\u7ad9
aV\u51fa\u6765
p129
aV\u672a\u6765
p130
aV\u70e6\u607c
p131
aV\u65c1
aV\u5e94\u8be5
p132
aV\u770b\u89c1
p133
aV\u4f7f\u7528
p134
aV\u8fd9\u4e00
p135
aV\u90a3\u91cc
p136
aV\u653e\u5f03
p137
aV\u62e5\u6709
p138
aV\u60c5\u7eea
p139
aV\u53d8
aV\u6a21\u6837
p140
aV\u98de
aV\u8f66
aV\u6240\u4ee5
p141
aV\u4e2d\u7684
p142
aV\u54c8
aV\u4e00\u4e2a
p143
aV\u6b21
aV\u9047\u89c1
p144
aV\u53f0
aV\u6253
aV\u627f\u8bfa
p145
aV\u6b23\u8d4f
p146
aV\u767d\u8272
p147
aV\u8001
aV\u867d\u7136
p148
aV\u6708\u5149
p149
aV\u7403
aV\u5e2e
aV-
aV\u70ba
aV\u8bb0\u5fc6
p150
aV\u591a\u5c11
p151
aV\u8fd9\u4e9b
p152
aV\u9a84\u50b2
p153
aV\u671b
aV\u6d88\u5931
p154
aV\u5269
aV\u673a
aV\u539f\u8c05
p155
aV\u91cd\u65b0
p156
aV\u6bd4\u8f83
p157
aV\u591c
aV\u900f\u660e
p158
aV\u90a3\u4e9b
p159
aV\u4e00\u5207
p160
aV\u4f4f
aV\u5b57
aV\u53eb\u505a
p161
aV\u5531
aV\u53ca
aV\u79bb
aV\u6539\u53d8
p162
aV\u6e05\u6670
p163
aV\u76ee\u5149
p164
aV\u540e\u6094
p165
aV\u9752\u6625
p166
aV\u7a97\u5916
p167
aV\u6f02\u4eae
p168
aV\u540d
aV\u753b
aV\u9009\u62e9
p169
aV\u6ce1
aV\u4ece\u524d
p170
aV\u820d
aV\u6563
aV\u597d\u50cf
p171
aV\u7d27\u7d27
p172
aV\u544a\u8bc9
p173
aV\u5634\u89d2
p174
aV\u5f97\u5f88
p175
aV\u5c31\u7b97
p176
aV\u90a3\u4e48
p177
aV\u5269\u4e0b
p178
aV\u4e4b\u524d
p179
aV\u771f
aV\u4eba\u751f
p180
aV\u75db
aV\u559d
aV\u56db
aV\u9ed8\u5951
p181
aV\u822c
aV\u8fc7\u8fc7
p182
aV\u8bb2
aV\u75af\u6389
p183
aV\u574f\u574f
p184
aV\u5168\u7136
p185
aV\u8d70\u8fc7
p186
aV\u7ec8\u4e8e
p187
aV\u5bc2\u5bde
p188
aV\u4f9d\u65e7
p189
aV\u5ba2
aV\u8bd7
aV\u95e8
aV\u9f99\u6ca1
p190
aV\u613f\u671b
p191
aV\u5730\u65b9
p192
aV\u706b\u8f66
p193
aV\u7a7a
aV\u5409\u4ed6
p194
aV\u6572
aV\u4e0d\u5bf9
p195
aV\u9875
aV\u722c
aV\u9519
aV\u8baf\u606f
p196
aV\u4e4b\u540e
p197
aV\u7684\u8bdd
p198
aV\u9001
aV\u53ea\u6709
p199
aV\u65e5
aV\u7cd6
aV\u8bd5
aV\u6d3b\u6d3b
p200
aV\u54fc\u54fc
p201
aV\u70ba\u4e86
p202
aV\u5916
aV\u8bcd
aV\u5316\u8eab
p203
aV\u957f\u5927
p204
aV\u53d7\u4f24
p205
aV\u58f0\u97f3
p206
aV\u4ee5
aVYa
p207
aV\u516e
aV\u626f
aV\u6210\u4e86
p208
aV\u770b\u5230
p209
aV\u524d\u8fdb
p210
aV\u7ed3\u5c40
p211
aV\u56de\u5934
p212
aV\u5f80
aV\u6b63
aV\u4e3a\u4e86
p213
aV\u4f9d\u8d56
p214
aV\u5f00\u5fc3
p215
aV\u62b1
aV\u6709\u70b9
p216
aV\u534a\u517d\u4eba
p217
aV\u904d
aV\u52c7\u6c14
p218
aV\u7a7f
aV\u8eb2
aV\u8c22\u8c22
p219
aV\u547d\u8fd0
p220
aV\u5929\u6daf
p221
aV\u957f
aV\u79cb
aV\u5165
aV\u82b1
aV\u653e\u5f00
p222
aV\u542c\u89c1
p223
aV\u7ed5\u8fc7
p224
aV\u7f16\u66f2
p225
aV\u5b63\u8282
p226
aV\u5386\u53f2
p227
aV\u8282\u594f
p228
aV`
aV\u5317
aV\u65e5\u8bb0
p229
aV\u80a9\u8180
p230
aV\u9762\u5bf9
p231
aV\u8bf1\u60d1
p232
aV\u5f62\u72b6
p233
aV\u5440
aV\u7a7a\u4e2d
p234
aV\u9053\u7406
p235
aV\u5417
aV\u53e8\u4f4d
p236
aV\u5bb6\u4e61
p237
aV\u5634
aV\u5f71\u5b50
p238
aV\u5355\u7eaf
p239
aV\u597d\u597d
p240
aV\u53e3\u888b
p241
aV\u5c81\u6708
p242
aV\u4e4b
aV\u6ee1
aV\u6d77
aV\u4e00\u70b9
p243
aV\u65e0\u5948
p244
aV\u62e5\u62b1
p245
aV\u60b2\u5267
p246
aV\u7a7f\u8fc7
p247
aV\u79d8\u5bc6
p248
aV\u4ee3\u8868
p249
aV\u9519\u8fc7
p250
aV\u540c
aV\u5f26
aV\u611f\u5230
p251
aV\u627f\u53d7
p252
aV\u96fe
aV\u54ac
aV\u6e10\u6e10
p253
aV\u5f53\u4f5c
p254
aV\u878d\u5316
p255
aV\u68a6\u60f3
p256
aV\u89e3\u91ca
p257
aV\u529e\u6cd5
p258
aV\u89c9\u5f97
p259
aV\u9ea6\u82bd
p260
aV\u6c57
aV\u592a\u5feb
p261
aV\u7231\u4e0a
p262
aV\u57ce\u5821
p263
aV\u8baf\u53f7
p264
aV\u5f3a
aV\u6811
aV\u96ea
aV\u4f55\u65f6
p265
aV\u9003
aV\u51fa\u73b0
p266
aV\u65f6
aV\u90a3\u4e2a
p267
aV\u9065\u8fdc
p268
aV\u5c71
aV\u547c\u5438
p269
aV\u6562
aV\u4f46\u662f
p270
aV\u5934
aV\u591f
aV\u60f3\u5ff5
p271
aV\u7a97
aV\u5bb3\u6015
p272
aV\u65e9
aV\u67aa
aV\u7fbd\u6ce1
p273
aV\u7b97
aV\u4e0d\u8fc7
p274
aV\u5fd9
aV\u751c
aV\u9646
aV\u6251
aV\u9192\u6765
p275
aV\u5982\u6b64
p276
aV\u4e8c
aV\u94c1\u76d2
p277
aV\u5c0f\u4e11
p278
aV\u5730\u7403
p279
aV\u81ea\u7531
p280
aV\u654c\u4eba
p281
aV\u8d70\u5230
p282
aV\u602a
aV\u901f\u5ea6
p283
aV\u5730\u76d8
p284
aV\u529e
aV\u94c1\u652f\u8def
p285
aV\u91cc\u9762
p286
aV\u5c11
aV\u53e6
aV\u5206\u5f00
p287
aV\u624b\u6307
p288
aV\u591a\u96be
p289
aV\u7275\u624b
p290
aV\u6703
aV\u719f\u6089
p291
aV\u505c\u7559
p292
aV\u8eab\u4f53
p293
aV\u4e00\u4e9b
p294
aV\u65b9\u5411
p295
aV\u4f5c
aV\u5173\u4e8e
p296
aV\u65ad
aV\u71c3\u70e7
p297
aV\u53d1\u73b0
p298
aV\u80a1
aV\u60c5
aV\u4f4e\u5934
p299
aV\u8840
aV\u661f
aV\u72fc
aV\u542c\u89c9
p300
aV\u57ce\u5e02
p301
aV\u4ed4\u7ec6
p302
aV\u9152
aV\u4e58
aV\u7f13\u7f13
p303
aV\u52a8\u4f5c
p304
aV\u6cae\u4e27
p305
aV\u523b
aV\u5047\u8c61
p306
aV\u4e4b\u4e2d
p307
aV\u5012
aV\u79fb\u52a8
p308
aV\u6f14
aV\u6d41
aV\u6309
aV\u6447
aV\u5929\u771f
p309
aV\u4e1c\u65b9
p310
aV\u624b\u4e2d
p311
aV\u4f24\u5bb3
p312
aV\u65b9\u6587\u5c71
p313
aV\u70ed\u60c5
p314
aV\u8fc7\u5f80
p315
aV\u62cd\u7167
p316
aV\u72d7
aV\u9662\u5b50
p317
aV\u6362
aV\u65f6\u7a7a
p318
aV\u5929\u5802
p319
aV\u8361
aV\u516c\u5e73
p320
aV\u85cf
aV\u725b\u4ed4
p321
aV\u8138\u4e0a
p322
aV\u7adf
aV\u7ae5\u5e74
p323
aV\u521a
aV\u59b3
aV\u5728\u4e4e
p324
aV\u5c0f\u65f6\u5019
p325
aV\u52aa\u529b
p326
aV\u82f1\u96c4
p327
aV\u4e66
aV\u543c
aV\u79cb\u5343
p328
aV\u7eb7\u98de
p329
aV\u603b
aV\u7247
aV\u9999\u5473
p330
aV\u76f4\u76f4
p331
aV\u9635
aV\u653e\u4e0b
p332
aV\u5206
aV\u2606
aV\u534a
aV\u4ece\u6765\u4e0d
p333
aV\u6068
aV\u66b4\u529b
p334
aV\u79cb\u5929
p335
aV\u9ad8
aV\u5565\u54aa
p336
aV\u8df3
aV\u7ec6\u6570
p337
aV\u4e00\u884c
p338
aV\u8111\u6d77
p339
aV\u52a0
aV\u5728\u4e00\u8d77
p340
aV\u5f13
aV\u53f9\u606f
p341
aV\u89c9
aV\u91ce
aV\u989c\u8272
p342
aV\u8e72
aV\u7ffb\u6eda
p343
aV\u811a
aV\u610f\u4e49
p344
aV\u5c0f\u6751
p345
aV\u4e70
aV\u6298
aV\u970d\u970d\u970d
p346
aV\u51ac\u5929
p347
aV\u57cb
aV\u5de6\u53f3
p348
aVE
aV\u4e0b\u53bb
p349
aV\u8bed
aV\u9999
aV\u60f3\u60f3
p350
aV\u604b\u7231
p351
aV\u6e05
aV\u4e45
aV\u552f\u4e00
p352
aV\u6574
aV\u4e0d\u540c
p353
aV\u679d
aV\u9053
aV\u5355
aV\u6c5f\u5c71
p354
aV\u771f\u5fc3
p355
aV\u4e13\u8f91
p356
aV\u4f20\u8bf4
p357
aVNa
p358
aV\u62c9
aV\u4e0d\u77e5\u4e0d\u89c9
p359
aV\u65b9\u5f0f
p360
aV\u4e0d\u65ad
p361
aV\u6837\u5b50
p362
aV\u666f\u8c61
p363
aV\u66f4\u52a0
p364
aV\u8fd8\u597d
p365
aV\u6216\u8bb8
p366
aV\u6c49\u5821
p367
aV\u67ab\u53f6
p368
aV\u6491\u4f1e
p369
aV\u4e0b\u6765
p370
aV\u5b58\u5728
p371
aV\u653e\u677e
p372
aV\u732b
aV\u955c\u5934
p373
aV\u98ce\u6c99
p374
aV\u4f5c\u8bcd
p375
aV\u5b9e\u73b0
p376
aV\u540e\u77e5
p377
aV\u505c\u6b62
p378
aV\u5927\u5730
p379
aV\u5988
aV\u5757
aV\u5927\u5bb6
p380
aV\u4eba\u79f0
p381
aV\u4e0d\u5b89
p382
aV\u95ed\u4e0a
p383
aV\u7741
aV\u98ce\u4e2d
p384
aV\u706f
aV\u53f3\u62f3
p385
aV?
aV\u65f6\u5019
p386
aV\u76f4
aV\u76f8\u4fe1
p387
aV\u5b87\u5b99
p388
aV\u51b0
aV\u5e45
aV\u4f5c\u66f2
p389
aV\u5982\u9f99
p390
aV\u59cb\u7ec8
p391
aV\u5b64\u5355
p392
aV\u5982\u4f55
p393
aV\u7b80
aV\u5435
aV\u4e00\u751f
p394
aV\u79bb\u53bb
p395
aV\u6768\u67f3
p396
aV\u6c89\u6ca6
p397
aV\u56e0\u70ba
p398
aV\u4e4b\u5916
p399
aV\u7cd6\u679c
p400
aV\u6eaa\u8fb9
p401
aV\u5357\u65b9
p402
aV\u8bf4\u8bdd
p403
aV\u7ffb\u9605
p404
aV\u91cd\u8981
p405
aV\u6ce8\u610f
p406
aV\u4e13\u5fc3
p407
aV\u660e\u6708
p408
aV\u897f\u5143
p409
aV\u8fd9\u6837\u5b50
p410
aV\u6572\u95e8
p411
aV\u98ce\u666f
p412
aV\u9aa4\u96e8
p413
aV\u77e5
aV\u82cd\u8001
p414
aVxi
p415
aV\u4e00\u6837
p416
aV\u9884\u5146
p417
aV\u7a7f\u4e0a
p418
aV\u8fd9\u65f6
p419
aV\u5565
aV\u7236
aV\u6210\u719f
p420
aV\u7adf\u7136
p421
aV\u54ea\u91cc
p422
aV\u6f02\u6cca
p423
aV\u6536\u5272
p424
aV\u60f3\u8c61
p425
aV\u624b\u673a
p426
aV\u8d85\u8d8a
p427
aV\u76f8\u7231
p428
aV\u8c03\u6574
p429
aV\u963b\u6b62
p430
aV\u60f3\u8d77
p431
aV\u5fc3\u8df3
p432
aV\u633d\u56de
p433
aV\u6069\u6028
p434
aV\u7238
aV\u7f8e\u5973
p435
aV\u9c7c
aV\u900f
aV\u68ee\u6797
p436
aV\u529b\u6c14
p437
aV\u3016
aV\u7406\u7531
p438
aV\u4e03
aV\u5f39
aV\u8857
aV\u4e1c\u98ce\u7834
p439
aV\u6c79\u6d8c
p440
aV\u6740
aV\u5594
aV\u96f7
aV\u60b2\u4f24
p441
aV\u5206\u5bf8
p442
aV\u5f80\u524d
p443
aV\u6c5f\u5357
p444
aV\u62bd\u79bb
p445
aV\u6240
aV\u5bf9\u767d
p446
aV\u5176\u5b9e
p447
aV\u6e38\u620f
p448
aV\u7626
aV\u8fdc\u8fdc
p449
aV\u5df7
aVBlues
p450
aV\u5c0d
aV\u6467\u6bc1
p451
aV\u6c5f\u6e56
p452
aV\u5750
aV\u50bb
aV\u6000\u91cc
p453
aV\u8f66\u7a97
p454
aV\u6d6a
aV\u56de\u5473
p455
aV\u5584
aV\u63a5
aV\u5e74\u4ee3
p456
aV\u620f
aV\u8f7d
aV\u4fa7\u8138
p457
aV\u8bb0
aV\u968f\u7740
p458
aV\u7a7a\u6c14
p459
aV\u54ed\u6ce3
p460
aV\u542c\u5230
p461
aV\u60ed\u6127
p462
aV\u53bb\u5e74
p463
aV\u51c6
aV\u5f39\u594f
p464
aV\u611f\u60c5
p465
aV\u65e0\u6094
p466
aV\u8513\u5ef6
p467
aV\u611b\u60c5
p468
aV\u5c0f\u5b69
p469
aV\u975e
aV\u4e16
aV\u5047
aV\u751f
aV\u53ef\u662f
p470
aV\u673a\u4f1a
p471
aV\u62b5\u6297
p472
aV\u4e00\u767e
p473
aV\u53ea\u8981
p474
aV\u5915\u9633
p475
aV\u5b69\u5b50\u4eec
p476
aV\u5446
aV\u5148
aV\u5c0f\u5c0f
p477
aV\u89e3
aV\uff1f
aV\u9694\u58c1
p478
aV\u770b\u4e0d\u89c1
p479
aV\u666f\u8272
p480
aV\u770b\u900f
p481
aV\u5dee\u70b9
p482
aV\u6302
aV\u8f6e\u56de
p483
aV\u9f99\u5377\u98ce
p484
aV\u7ebf
aV\u521a\u597d
p485
aV\u6559
aV\u7891
aV\u65e5\u5b50
p486
aV\u83ca\u82b1
p487
aV\u547d\u683c
p488
aV\u7ed5
aV\u4ee5\u4e3a
p489
aV\u665a
aV\u5899\u4e0a
p490
aV\u5439
aV\u5438\u5f15
p491
aV\u6cea\u4e0d\u4f11
p492
aV\u7f8e\u7d22
p493
aV,
aV\u5f15\u529b
p494
aV\u62ff\u51fa
p495
aV\u5168\u90fd
p496
aV\u5168\u90e8
p497
aV\u91ca\u6000
p498
aV\u53f6
aV\u6bdb
aV\u8702
aV\u7a7f\u68ad
p499
aV\u6697
aV\u5176\u4ed6
p500
aV\u5b66\u6821
p501
aV\u5c71\u8170
p502
aV\u5929\u4efd
p503
aV\u81ea\u4fe1
p504
aV\u672c
aV\uff5e\uff5e\uff5e
p505
aV\u9ec4\u660f
p506
aV\u767d\u53d1
p507
aV\u9b54
aV\u503e\u76c6
p508
aV\u6cea\u6c34
p509
aV\u5929\u9752\u8272
p510
aV\u5b8c\u5168
p511
aV\u592a\u9633
p512
aV\u57f9\u517b
p513
aV\u6cdb\u9ec4
p514
aV\u62c9\u957f
p515
aV\u70ab\u8000
p516
aV\u7d27
aV\u56de\u60f3
p517
aV\u51b7\u5374
p518
aV\u5e73\u539f
p519
aV\u9189
aV\u8bb0\u5f55
p520
aV\u5e97
aV\u6735
aV\u8f6f\u5f31
p521
aV\u88c2\u7f1d
p522
aV\u5212
aV\u7529\u5f00
p523
aV\u996e\u6599
p524
aV\u6307
aV\u563f
aV\u65e5\u5386
p525
aV\u9752
aV\u58f6
aV\u6bdb\u5f2f
p526
aV\u8d85
aV\u50f5\u5c38\u8e72
p527
aV\u98de\u7fd4
p528
aV\u8715\u53d8
p529
aV\u88ad
aV\u4f24\u5fc3
p530
aV\u627e\u5230
p531
aV\u7167
aV\u54ea
aV\u9694\u7740
p532
aV\u5c71\u6c34
p533
aV\u6751\u5e84
p534
aV\u8c03\u8c03
p535
aV\u597d\u4e45
p536
aV\u7a7a\u767d
p537
aV\u5927\u4eba\u4eec
p538
aV\u8d77\u6765
p539
aV\u5f7b\u5e95
p540
aV\u5351\u5fae
p541
aV\u8fbe\u7c73\u4e9a
p542
aV\u871c
aV\u64cd\u7eb5
p543
aV\u6c14\u8d28
p544
aV\u7136\u540e
p545
aV\u542c\u8bf4
p546
aV\u5f2f\u8170
p547
aV\u5916\u9762
p548
aV\u88c5
aV\u5343\u91cc
p549
aV\u4eba\u7fa4
p550
aV\u5343\u4e07
p551
aV\u6dcb\u6e7f
p552
aV\u5265\u843d
p553
aV\u7ed3\u5c3e
p554
aV\u71d5\u5b50
p555
aV\u8bd7\u4eba
p556
aV\u66fe\u7ecf
p557
aV\u77ac\u95f4
p558
aV\u4e8b\u60c5
p559
aV\u501f\u53e3
p560
aV\u6e34\u671b
p561
aV\u6e9c
aV\u8f93\u8ddf\u8d62
p562
aV\u540e\u9000
p563
aV\u53e4\u8001
p564
aV\u95ee\u9898
p565
aV\u5b64\u5bc2
p566
aV\u73bb\u7483
p567
aV\u5486\u54ee
p568
aV\u4e0d\u66fe
p569
aV\u9762\u5305
p570
aV\u8ba1\u7b97
p571
aVPeace
p572
aV\u71ac
aV\u6765\u81ea
p573
aV\u5f53\u521d
p574
aV\u6cfc\u58a8
p575
aV\u82cf
aV\u795e
aV\u6325
aV\u89d2\u843d
p576
aV\u82e5
aV\u60f9
aV\u5f88\u591a
p577
aV\u8df3\u52a8
p578
aV\u547c\u5578\u800c\u8fc7
p579
aV\u504f\u504f
p580
aV\u653e\u624b
p581
aV\u62f3
aV\u968f\u98ce
p582
aV\u5185\u5bb9
p583
aV\u9762\u7ea2
p584
aV\u6301\u7eed
p585
aV\u5f98\u5f8a
p586
aV\u5899\u58c1
p587
aVIce
p588
aV\u7259
aV\u6572\u6572
p589
aV\u773c\u795e
p590
aV\u776b
aV\u5f53\u5e74
p591
aV\u7070
aV\u51b2\u7834
p592
aV\u5f97\u5230
p593
aV\u5de2
aV\u5371\u9669
p594
aV\u661f\u661f
p595
aV\u9a6c\u6495\u5230
p596
aV\u96f6\u788e
p597
aV\u81ea\u7136
p598
aV\u6e38
aV\uff5e\uff5e
p599
aV\u5199\u4e0b
p600
aV\u5386
aV\u8fc7\u9519
p601
aV\u6b4c\u8c23
p602
aV\u4f20
aV\u62c5\u5fc3
p603
aV\u53ef\u80fd
p604
aV\u6495
aV\u4eb2
aV\u626f\u53bb
p605
aV\u76d8\u65cb
p606
aV\u64e6\u773c\u6cea
p607
aV\u7434\u58f0
p608
aV\u843d\u53f6
p609
aV\u6728\u70ad
p610
aV\u6765\u4e34
p611
aV\u65ad\u7fc5
p612
aV\u626f\u94c3
p613
aV\u56de\u5bb6
p614
aV\u6401\u8fd4
p615
aV\u4e22
aV\u4e00\u7edf
p616
aV\u5fc3\u75bc
p617
aV\u5bfb\u627e
p618
aV\u575a\u51b3
p619
aV\u9009
aV\u6bdb\u8863
p620
aV\u5b89\u8be6
p621
aV\u8fde\u6210
p622
aV\u79bb\u522b
p623
aV\u6574\u591c
p624
aV\u6839\u672c
p625
aV\u8d62
aV\u7435\u7436
p626
aV\u6ce5\u6cde
p627
aV\u4f2a\u9020
p628
aV\u70df\u96e8
p629
aV\u81ea
aV\u7bee
aV\u8721\u70db
p630
aV\u80f8\u53e3
p631
aV\u56fd\u5ea6
p632
aV\u96a7\u9053
p633
aV\u3017
aV\u311f\u5b57
p634
aV\u64ad\u653e
p635
aV\u98ce\u58f0
p636
aV\u4e16\u7eaa
p637
aV\u62b1\u4f4f
p638
aV\u6cb3\u53e3
p639
aV\u98a8\u6708
p640
aV\u7a7f\u8d8a
p641
aV\u4eba\u4eec
p642
aV\u574f
aV\u6563\u843d
p643
aV\u7275\u6302
p644
aV\u5f53\u65f6
p645
aV\u5370\u8c61
p646
aV\u7a81\u7136
p647
aV\u914d
aV\u7d55
aV\u7eff
aV\u5c31\u8c61
p648
aV\u8584
aV\u4e2d\u95f4
p649
aV\u773c\u4e2d
p650
aV\u5b66\u4f1a
p651
aV\u53e0
aV\u5fc3\u4e8b
p652
aV\u725b\u5976
p653
aV\u7eaf\u767d
p654
aV\u8f6c\u5f2f
p655
aV\u843d\u6cea
p656
aV\u7b54\u6848
p657
aV\u8ab0
aV\u873b\u8713
p658
aV\u4e00\u4ee3
p659
aV\u7ed3\u679c
p660
aV\u6d69\u52ab
p661
aV\u51fa\u624b
p662
aV\u8e0f\u4e0a
p663
aV\u652f\u914d
p664
aV\u8349\u5730
p665
aV\u7136\u5f8c
p666
aV\u8eab\u4efd
p667
aV\u8f9b\u82e6
p668
aV\u7edd\u671b
p669
aV\u586b\u5e73
p670
aV\u81ea\u8d1f
p671
aV\u8774\u8776
p672
aV\u5929\u6c14
p673
aV\u5fae\u91ba
p674
aV\u4f86
aV\u8a93\u8a00
p675
aV\u96e8\u6c34
p676
aV\u8fdb
aV\u95f7
aV\u8111\u888b
p677
aV\u6587\u5b57
p678
aV\u5730\u4e0a
p679
aV\u8d85\u4eba
p680
aV\u5fae\u5fae
p681
aV\u5f53\u4e0b
p682
aV\u963b\u788d
p683
aV\u73ca\u745a
p684
aV\u8ddf\u7740
p685
aV\u5b64\u72ec
p686
aV\u5cb8
aV\u7eaa\u5f55
p687
aV\u96d5\u523b
p688
aV\u7ebf\u6761
p689
aV\u6e05\u695a
p690
aV\u7121\u95dc
p691
aV\u9876
aV\u7ea2\u5c18
p692
aV\u5c18\u57c3
p693
aV\u8ff7\u8def
p694
aV\u534e\u4e3d
p695
aV\u514d\u5f97
p696
aV\u7f3a\u6c27
p697
aV\u6447\u6643
p698
aV\u4fef\u77b0
p699
aV\u9690\u85cf
p700
aV\u7761\u8457
p701
aV\u7528\u5fc3
p702
aV\u7ec8\u70b9
p703
aV\u6d01
aV\u9713\u8679
p704
aV\u6708
aV\u62f3\u5934
p705
aV\u8d8a\u8fc7
p706
aV\u711a\u9999
p707
aV\u89c2\u5ff5
p708
aV\u5272\u4f24
p709
aV\u5408
aV\u670b\u53cb
p710
aV\u63a5\u8457
p711
aV\u5fcd
aV\u984c\u5e8f
p712
aV\u75b2\u60eb
p713
aV\u7535\u8bdd
p714
aV\u5f15\u64ce\u58f0
p715
aV\u7531\u4e0d\u5f97
p716
aV\u526a
aV\u95fb
aV\u624b\u6cd5
p717
aV\u5929\u4e0b
p718
aV\u6d2a\u8352
p719
aV\u94c5\u7b14
p720
aV\u968f\u4fbf
p721
aV\u8eab\u65c1
p722
aV\u7bf1\u7b06
p723
aV\u5171\u540c
p724
aV\u5f00\u53e3
p725
aV\u653b\u52bf
p726
aV\u94a5\u5319
p727
aV\u51b3\u6597
p728
aV\u547d
aV\u9000
aV\u65b9
aV\u51fa\u571f
p729
aV\u9080
aV\u5217
aV\u8f6e\u5ed3
p730
aV\u82b1\u5f00
p731
aV\u4f55
aV\u4e4b\u95f4
p732
aV\u8046\u542c
p733
aV\u72c2\u98ce
p734
aV\u5e72\u51c0
p735
aV\u7a9d
aV\u5206\u8fa8
p736
aV\u53d7
aV\u4f0a\u65af\u5766\u5821
p737
aV\u8857\u89d2
p738
aV\u7edd\u4e0d
p739
aV!
aV\u5916\u8868
p740
aV\u8d44\u683c
p741
aV\u516c\u5f0f
p742
aV\u6162
aV\u5fae\u5fae\u7b11
p743
aV\u98d8\u843d
p744
aV\u4e0d\u582a
p745
aV\u3002
aV\u5632\u7b11
p746
aV\u4e00\u5929
p747
aV\u91cd\u6765
p748
aV\u5305\u5bb9
p749
aV\u72fc\u72c8
p750
aV\u800d
aV\u5a01\u80c1
p751
aV\u8dd1
aV\u751f\u6c14
p752
aV\u6ea2\u51fa
p753
aV\u6a2a
aV\u768e
aV\u65f6\u5dee
p754
aV\u540e\u9762
p755
aV\u5468\u56f4
p756
aV\u51e1\u4e8b
p757
aV\u5e7d\u9ed8
p758
aV\u8857\u9053
p759
aV\u60ac\u5d16
p760
aV\u7834
aV\u8292\u8349
p761
aV\u8fce\u5411
p762
aV\u4f55\u5fc5
p763
aV\u8bc1\u660e
p764
aV\u522e
aV\u5347\u7a7a
p765
aV\u5c71\u5761
p766
aV\u6d41\u661f
p767
aV\u5f71\u54cd
p768
aV\u8f7b
aV\u7eaf
aV\u5956
aV\u8eba\u5728
p769
aV\u6b8b\u9177
p770
aV\u7948\u7977
p771
aV\u9084
aV\u60f3\u50cf
p772
aV\u5dee
aV\u94dc
aV\u5c3d\u5934
p773
aV\u9760\u7740
p774
aV\u7761\u7740
p775
aV\u54fc
aV\u98d8\u5f97\u98d8\u5f97\u54bf
p776
aV\u5f62\u5bb9
p777
aV\u949f
aV\u5594\u5594
p778
aV\u7ec3
aV\u5b64\u7368
p779
aV\u9ed1\u767d
p780
aV\u884c
aV\u6dcb
aV\u9884\u6d4b
p781
aV\u8986\u76d6
p782
aV\u900f\u8fc7
p783
aV\u4e00\u4e5d\u56db\u4e09
p784
aV\u5982\u4eca
p785
aV\u725b
aV\u5e7e
aV\u4f9d\u9760
p786
aV\u8822
aV\u51fa\u53e3
p787
aV\u4ee5\u540e
p788
aV\u54b8\u54b8
p789
aV\u97f3
aV\u89c2\u4f17
p790
aV\u95f4
aV\u5760\u5165
p791
aV\u5fc5\u987b
p792
aV\u8d76
aV\u5c16
aV\u6b4c\u8bcd
p793
aV\u70fd\u706b
p794
aV\u65c5\u884c
p795
aV\u5973\u795e
p796
aV\u8c61
aV\u873f\u8712
p797
aV\u7279\u8272
p798
aV\u7ffb
aV\u545c
aV\u70df
aV\u821e\u8e48
p799
aV\u6dcc
aV\u51c6\u5907
p800
aV\u76d4\u7532
p801
aV\u540d\u548c\u5229
p802
aV\u5904
aV\u5de8\u70ae
p803
aV\u5954\u8dd1
p804
aV\u592a\u8fc7
p805
aV\u4e2a\u4eba
p806
aV\u53cd\u6b63
p807
aV\u5370\u5730\u5b89
p808
aV\u5f97\u54bf
p809
aV\u51c4\u7f8e
p810
aV\u4ef6
aV\u773c\u5149
p811
aV\u6591\u9a73
p812
aV\u4f0a
aV\u65bc\u662f
p813
aV\u53d1\u751f
p814
aV\u6cb3
aV\u5173\u7cfb
p815
aV\u4e00\u53e3\u6c14
p816
aV\u585e\u5317
p817
aV\u5916\u5957
p818
aV\u4e00\u7897\u70ed\u7ca5
p819
aV\u3121
aV\u7ae5\u8bdd
p820
aV\u4efd
aV\u6d6a\u6f6e
p821
aV\u666f
aV\u4e0d\u9519
p822
aV\u4e5f\u597d
p823
aV\u5355\u8f66
p824
aV\u7267\u8349
p825
aV\u4ec1\u6148
p826
aV\u591a\u6c41
p827
aV\u8fc7\u6ee4
p828
aV\u7cbe\u51c6
p829
aV\u6b27\u6d32
p830
aV\u4f18\u96c5
p831
aV\u518d\u89c1
p832
aV\u5317\u98ce
p833
aV\u5144\u5f1f
p834
aV\u5f25\u6f2b
p835
aV\u5f3a\u70c8
p836
aV\u5bd2\u98ce
p837
aV\u91cd
aVHei
p838
aV\u62ef\u6551
p839
aV\u8d8a
aV\u5f48\u594f
p840
aV\u6000\u62b1
p841
aV\u6447\u6eda
p842
aV\u5b66\u4e60
p843
aV\u5361
aV\u4e0b\u96e8\u5929
p844
aV\u6b7b\u53bb
p845
aV\u5f20\u6d77\u62a5
p846
aV\u9b45\u529b
p847
aV\u771f\u5b9e
p848
aV\u5927\u6982
p849
aV\u7ed3\u6210
p850
aV\u6218\u58d5
p851
aV\u8d76\u7d27
p852
aV\u53e4\u5178
p853
aV\u63d0\u9192
p854
aV\u4e00\u4e0b
p855
aV\u541f\u5531
p856
aV\u968f\u65f6
p857
aV\u4e1c
aV\u6bb5
aV\u53d1\u9175
p858
aV\u8003\u5012
p859
aV\u73b0\u5b9e
p860
aV\u5f80\u4e8b
p861
aV\u4e0d\u5173
p862
aV\u4e00\u8eab
p863
aV\u96e8\u4e0b
p864
aV\u4eae\u4e3d
p865
aV\u6cea\u6ef4
p866
aV\u8c46
aV\u4e3a\u6b62
p867
aV\u7cbe\u81f4
p868
aV\u5929\u8fb9
p869
aV\u571f\u5730
p870
aV\u3112\u30fc
p871
aV\u4e00\u8fb9
p872
aV\u94f6
aV\u4e9b
aV\u8857\u821e
p873
aV\u59ff\u52bf
p874
aV\u9884\u6599
p875
aV\u6279\u7eb8
p876
aV\u7a7a\u5c4b
p877
aV\u91cd\u529b
p878
aV\u6218\u4e89
p879
aV\u6d88\u706d
p880
aV\u8138\u5b54
p881
aV\u591c\u8272
p882
aV\u5496\u5561
p883
aV\u6700\u7231
p884
aV\u72b9
aV\u6325\u6cea
p885
aV\u60b2\u54c0
p886
aV\u89e3\u51b3
p887
aV\u7ec3\u4e60
p888
aV\u8c26\u5351
p889
aV\u522b\u53d1\u6296
p890
aV\u811a\u6b65
p891
aV\u8dcc\u649e\u649e
p892
aV\u5bb3\u7f9e
p893
aV\u65cb\u8f6c
p894
aV\u6765\u5230
p895
aV\u8fdb\u653b
p896
aV\u8def\u5439
p897
aV\u6084\u6084
p898
aV\u84dd
aV\u9893\u5e9f
p899
aV\u4efd\u91cf
p900
aV\u8c03
aV\u6559\u5ba4
p901
aV\u60c5\u8c03
p902
aV\u9694
aV\u7529
aV\u63a9\u57cb
p903
aV\u62bd\u5c49
p904
aV\u970d\u5bb6\u62f3
p905
aV\u88c1\u5224
p906
aV\u821e
aV\u5026
aV\u5b8c
aV\u611b
aV\u7fa4
aV\u8840\u8165
p907
aV\u5fc3\u613f
p908
aV\u6012\u706b
p909
aV\u70e6
aV\u7368\u7f3a
p910
aV\u56a3\u5f20
p911
aV\u66a7\u6627
p912
aV\u7075\u6d3b
p913
aVsou
p914
aV\u8ff7\u4eba
p915
aV\u524d\u65b9
p916
aV\u6c49
aV\u53e3\u611f\u5473\u89c9
p917
aV\u6c11\u8c23
p918
aV\u533b\u836f\u7bb1
p919
aV\u6d53
aV\u76f8\u601d\u5bc4\u7ea2
p920
aV\u517d
aV\u6194\u60b4
p921
aV\u590f\u5b63
p922
aV\u62db\u60f9
p923
aV\u9178\u7518
p924
aV\u5ea7\u4f4d
p925
aV\u516b
aV\u65e5\u51fa
p926
aV\u54aa
aV\u5b8c\u7f8e\u4e3b\u4e49
p927
aV\u62c6
aV\u94a2\u7434
p928
aV\u96d5\u50cf
p929
aV\u6f66\u8349
p930
aV\u8d81
aV\u5ff5\u5492
p931
aV\u5f7c\u6b64
p932
aV\u5510\u671d
p933
aVWu
p934
aV\u5165\u5bab
p935
aV\u70ae\u9a6c\u5c3d
p936
aV\u6f47\u6f47
p937
aV\u6843
aV\u7d00\u5ff5
p938
aV\u540e\u89c6\u955c\u91cc
p939
aV\u5c71\u6cb3
p940
aV\u98d8\u9038
p941
aV\u5939
aV\u9010\u6e10
p942
aV\u98ce\u5439
p943
aV\u6d4f\u89c8
p944
aV\u90aa\u6076
p945
aV\u5c71\u6d1e
p946
aV\u60a0\u54c9
p947
aV\u5c4b\u6a90
p948
aV\u5fd8\u6389
p949
aV\u9eef\u7136
p950
aV\u98ce\u8f66
p951
aV\u5466
aV\u9a6c\u513f
p952
aV\u6234
aV\u4fe1
aV\u631f
aV\u8747
aV\u540c\u60c5
p953
aV\u9ea6
aV\u613f\u610f
p954
aV\u767d
aV\u98ce\u96ea
p955
aV\u7791
aV\u73a9
aV\u8eab
aV\u80ba
aV\u53e9
aV\u5ba2\u6808
p956
aV\u7ebf\u80cc
p957
aV\u539f\u5219
p958
aV\u8840\u67d3
p959
aV\u5c01\u95ed
p960
aV\u6ee1\u5730
p961
aV\u6050\u60e7
p962
aV\u7238\u7238
p963
aVHoi
p964
aV\u72c2\u5954\u4e2d\u7684
p965
aV\u7403\u978b
p966
aV\u79e9\u5e8f
p967
aV\u592a\u5f3a
p968
aV\u6cbe
aV\u52fe
aV\u6b63\u4e49
p969
aV\u67d3\u4e0a
p970
aV\u4eba\u95f4
p971
aV\u63cd
aV\u671d\u7740
p972
aV\u5d29\u6e83
p973
aV\u795d\u798f
p974
aV\u6ca1\u7eed\u96c6
p975
aV\u73ed
aV\u5ff5
aV\u6a71\u7a97
p976
aV\u5f80\u4e0a
p977
aV\u7f8a
aV\u4e94
aV\u6570
aV\u6d17\u5237
p978
aV\u65c1\u8fb9
p979
aV\u7410\u788e
p980
aV\u6070
aV\u5feb\u5feb
p981
aV\u79d2
aV\u63a7\u5236
p982
aV\u5806
aV\u5f00\u8fdb
p983
aV\u7518
aV\u8036
aV\u65d7\u888d
p984
aV\u7eb5\u5bb9
p985
aV\u653e\u56de
p986
aV\u5145\u6ee1
p987
aV\u4eb2\u70ed
p988
aV\u5b81\u613f
p989
aV\u6c14\u52bf
p990
aV\u5598
aV\u6f14\u51fa
p991
aV\u8bad\u7ec3
p992
aV\u8fd4
aV\u5feb\u7ed9
p993
aV\u8131\u79bb
p994
aV\u8def\u4e0a
p995
aV\u53d8\u5f97
p996
aV\u98de\u673a
p997
aV\u6e3a\u5c0f
p998
aV\u7b46
aV\u5f97\u5956
p999
aV\u63e1
aV\u8f93
aV\u5e26\u9886
p1000
aV\u9ad8\u901f
p1001
aV\u62ac\u8d77
p1002
aV\u3107\u30fc
p1003
aV\u8857\u666f
p1004
aV\u6559\u5802
p1005
aV\u9017\u9635\u98de
p1006
aV\u89d2
aV\u8feb\u724c
p1007
aV\u4eca\u5929
p1008
aV\u4e3b\u5bfc
p1009
aV\u9053\u522b
p1010
aV\u8bb8\u4e0b
p1011
aV\u9519\u5931
p1012
aV\u8d70\u5f00
p1013
aV\u70ed
aV\u78be\u8fc7
p1014
aV\u7b1b
aV\u65a4
aV\u843d\u5bde
p1015
aV\u5206\u660e
p1016
aV\u56db\u5468
p1017
aV\u867d
aV\u8679
aV\u5f03\u6743
p1018
aV\u6e05\u79c0
p1019
aV\u77ed
aV\u5730\u94c1
p1020
aV\u61f8\u7b46
p1021
aV\u6b4c\u624b
p1022
aV\u9aa8\u5934
p1023
aV\u4e0a\u6d41
p1024
aV\u53ca\u683c
p1025
aV\u526f
aV\u770b\u7a7f
p1026
aV\u7535\u5f71\u9662
p1027
aV\u7532
aV\u310c\u311a
p1028
aV\u9664\u975e
p1029
aV\u4ed7
aV\u89e3\u836f
p1030
aV\u62fc\u547d
p1031
aV\u7b49\u5230
p1032
aV\u5783\u573e
p1033
aV\u558a\u53eb
p1034
aV\u6eff\u5929
p1035
aV\u62b9\u8bb0
p1036
aV\u6b8b\u5fcd
p1037
aV\u513f\u65f6
p1038
aV\u6ee1\u8138
p1039
aV\u98ce\u7b5d
p1040
aVOh
p1041
aV\u653e\u62b9
p1042
aV\u8eb2\u5728
p1043
aV\u51b0\u8fc7
p1044
aV\u6218\u6cd5\u65e0\u7a77
p1045
aV\u6f2b\u5929
p1046
aV\u6d88\u606f
p1047
aV\u5f53\u7136
p1048
aV\u778e\u900f
p1049
aV\u9c81\u6e7e
p1050
aV\u61ca\u4e27
p1051
aV\u59e5\u59e5
p1052
aV\u72ec\u7279
p1053
aV\u4e66\u6846
p1054
aV\u5934\u53d1
p1055
aV\u6311\u6218
p1056
aV\u5e55
aV\u68cd\u68d2
p1057
aV\u3108\u311a
p1058
aV\u60f3\u901a
p1059
aV\u9b54\u672f\u5e08
p1060
aV\u50cf\u662f
p1061
aV\u672a
aV\u5b8c\u6574
p1062
aV\u6c38
aV\u6001\u5ea6
p1063
aV\u516d\u767e
p1064
aV\u8457\u80cc
p1065
aV\u9ec4
aV\u5047\u88c5
p1066
aV\u5fe7\u4f24
p1067
aV\u4ee4
aV\u5fc3\u810f
p1068
aV\u597d\u7b11
p1069
aV\u8eab\u5f71
p1070
aV\u7167\u7247
p1071
aV\u6ee1\u8154
p1072
aV\u62bd
aV\u9ea6\u7530
p1073
aV\u4e00\u534a
p1074
aV\u600e\u843d
p1075
aV\u6e29\u4e60
p1076
aV\u827e\u5c14\u59c6\u652f
p1077
aV\u6389\u8fdb
p1078
aV\u6b63\u670d
p1079
aV\u6bd2\u836f
p1080
aV\u3119
aV\u548c\u5f26
p1081
aV\u5175
aV\u770b\u4e0d\u89c1\u7f6a
p1082
aV\u5bf9\u624b
p1083
aV\u65e0\u804a
p1084
aV\u98d8\u6563
p1085
aV\u8fd8\u539f
p1086
aV\u529b
aVla
p1087
aV\u591a\u4e45
p1088
aV\u592a\u5f02\u7c7b
p1089
aV\u8d95\u5feb
p1090
aV\u856d\u90a6
p1091
aV\u6e05\u6668
p1092
aV\u8fce
aV\u8d8a\u6765\u8d8a
p1093
aV\u601d\u7eea
p1094
aV\u6b8b
aV\u8bed\u8a00
p1095
aV\u6b20
aV\u5c16\u53eb
p1096
aV\u597d\u591a
p1097
aV\u91cd\u6f14
p1098
aV\u558a\u7d2f
p1099
aV\u79bb\u6211\u800c\u53bb
p1100
aV\u5947\u602a
p1101
aV\u4e4e
aV\u5438\u6536
p1102
aV\u914d\u4e0a
p1103
aV\u56ed\u6e38
p1104
aV\u571f\u58e4
p1105
aV\u8f7b\u677e
p1106
aV\u7cbe\u6b66
p1107
aV\u9762\u524d
p1108
aV\u50cf\u6eaa
p1109
aV\u758a
aV\u82b1\u9999
p1110
aVJay
p1111
aV\u6c34\u871c
p1112
aV\u662f\u975e
p1113
aVwo
p1114
aV\u524d\u4e16
p1115
aV\u6b8b\u7559
p1116
aV\u53d1\u51fa
p1117
aV\u62c6\u5c01
p1118
aV\u94c3\u58f0
p1119
aV\u4fdd\u62a4
p1120
aV\u53d1\u89c9
p1121
aV\u65e0\u80fd\u4e3a\u529b
p1122
aV\u518d\u6765
p1123
aV\u84dd\u8272
p1124
aV\u62db\u5f0f
p1125
aV\u94b1
aV\u7530
aV\u6492\u5a07
p1126
aV\u908a
aV\u98de\u884c
p1127
aV\u4e00\u5757
p1128
aV\u591a\u4f59
p1129
aV\u5fcd\u4f4f
p1130
aV\u751f\u65e5
p1131
aV\u9732\u51fa
p1132
aV\u7c89\u5ae9
p1133
aV\u5c16\u9510
p1134
aV\u725b\u8089
p1135
aV\u970d\u970d
p1136
aV\u58ee
aV\u5173
aV\u7f16
aV\u6cb3\u6d41
p1137
aV\u4e13\u5c5e
p1138
aV\u83ab\u540d
p1139
aV\u600e
aV\u540c\u6837
p1140
aV\u70db\u706b
p1141
aV\u5996\u517d
p1142
aV\u8fdd\u80cc
p1143
aV\u8f6e
aV\u73a9\u7b11
p1144
aV\u591c\u66f2
p1145
aV\u76ee\u6807
p1146
aV\u95e8\u5916
p1147
aV\u4eca\u751f
p1148
aV\u6270\u4e71
p1149
aV\u8499\u8499
p1150
aV\u5507\u818f
p1151
aV\u5e8f\u66f2
p1152
aV\u704c\u6e89
p1153
aV\u9ec4\u6c99\u51c9
p1154
aV\u8150\u8089
p1155
aV\u98de\u6a90
p1156
aV\u6d6a\u6f2b
p1157
aV\u65b9\u4f4d
p1158
aV\u65e0\u58f0
p1159
aV\u8dcc
aV\u4ee5\u70ba
p1160
aV\u55dc
aV\u9ed1\u6697
p1161
aV\u52a0\u901f
p1162
aV\u5957\u8def
p1163
aV\u4ec1\u8005
p1164
aV\u6cb3\u5357
p1165
aV\u968f
aV\u8c08
aV\u5fae
aV\u4ea6
aV\u9b54\u6cd5
p1166
aV\u6797\u8fc8\u53ef
p1167
aV\u53cd
aV\u9c9c\u82b1
p1168
aV\u6b4c\u66f2
p1169
aV\u63a5\u8fd1
p1170
aV\u51cb\u8c22
p1171
aV\u7b2c\u4e03
p1172
aV\u8dd1\u53bb
p1173
aV\u5815\u843d
p1174
aV\u4e50\u5668
p1175
aV\u4e4b\u6597
p1176
aV\u4eba\u6f6e
p1177
aV\u9762\u5177
p1178
aV\u51f6
aV\u5411\u4e0b
p1179
aV\u8dd1\u5230
p1180
aV\u5c0f\u5fc3\u7ffc\u7ffc
p1181
aV\u4e61\u95f4
p1182
aV\u80dc
aV\u8db3
aVmusic
p1183
aV\u4e0a\u98ce
p1184
aV\u8bfb\u4e66
p1185
aV\u8d34\u5fc3
p1186
aVme
p1187
aV\u6de1\u6c34\u6cb3
p1188
aV\u4e3a\u4f55
p1189
aV\u79fb
aV\u6e83\u6563
p1190
aV\u706b\u822c
p1191
aV\u5c0a\u4e25
p1192
aV\u4e4c\u9e26
p1193
aVMUSIC
p1194
aV\u738b\u8005
p1195
aV......
p1196
aV\u6a21\u7cca
p1197
aV\u53db\u519b
p1198
aV\u6c49\u6c34
p1199
aV\u76f8\u89c1
p1200
aV\u6f14\u620f
p1201
aV\u5708
aV\u8725\u876a
p1202
aV\u5c0f\u53ee\u5f53
p1203
aV\u4e34\u57ce
p1204
aV\u52a0\u8db3
p1205
aV\u5fff\u6068
p1206
aV\u4f53\u8d34
p1207
aV\u6de1\u6de1
p1208
aV\u9ebb\u75f9
p1209
aV\u8bed\u6c14
p1210
aV\u522e\u98ce
p1211
aV\u4e1c\u6b27
p1212
aV\u4fb5\u7565
p1213
aV\u6643
aV\u76f8\u540c
p1214
aV\u5077
aV\u53e4\u9053
p1215
aV\u5b09\u620f
p1216
aV\u9a91
aV\u4f17\u795e
p1217
aV\u5e76\u4e0d
p1218
aV\u5f8c\u6094
p1219
aV\u6253\u7403
p1220
aV\u61c2\u5f97
p1221
aV\u52a0\u6cb9
p1222
aV\u679d\u82bd
p1223
aV\u68d2\u7403
p1224
aV\u9057\u5fd8
p1225
aV\u968f\u624b
p1226
aV\u74f6\u5e95
p1227
aV\u4e00\u89d2
p1228
aV\u53db\u9006
p1229
aV\u575a\u786c
p1230
aV\u6b66\u5f53
p1231
aV\u86ee
aV\u6d88\u9632
p1232
aV\u4f73
aV\u5931\u63a7
p1233
aV\u5510\u88c5
p1234
aV\u59a5\u534f
p1235
aV\u6d77\u8fb9
p1236
aV\u64cd\u573a
p1237
aV\u773c\u95ed
p1238
aV\u5410\u6c14
p1239
aV\u81ea\u6f14
p1240
aV\u5bfb\u9a6c\u78b2\u94c1
p1241
aV\u6539\u5199
p1242
aV\u8bad\u5bfc\u5904
p1243
aV\u6b7b\u96be
p1244
aV\u81ea\u5bfc
p1245
aV\u6284
aV\u4e07
aV\u62b1\u6b49
p1246
aV\u6709\u751a\u4e48
p1247
aV\u4e60\u6b66
p1248
aV\u5077\u5077
p1249
aV\u8bed\u5e26
p1250
aV\u4e0d\u53ef\u80fd
p1251
aV\u81f3\u5c11
p1252
aV\u6cb9\u6f06
p1253
aV\u4ed9\u4eba
p1254
aV\u7ed3\u675f
p1255
aV\u98ce\u683c
p1256
aV\u7b14
aV\u8138\u988a
p1257
aV\u5f25\u8865
p1258
aV\u5b54
aV\u5927\u5927
p1259
aV\u966a\u4f34
p1260
aV\u5e73\u5e38
p1261
aV\u6d77\u4e0a
p1262
aV\u708a\u70df
p1263
aV\u8def\u4eba
p1264
aV\u76ee\u7684
p1265
aV\u4e5d
aV\u91cd\u51fa
p1266
aV\u53e4
aV\u6781
aV\u730e
aV\u70df\u96fe
p1267
aV\u54bf
aV\u8001\u5e08
p1268
aV\u5fc3\u4eea
p1269
aV\u7ea6\u5b9a
p1270
aV\u8363\u8000
p1271
aV\u60ef
aV\u5b57\u773c
p1272
aV\u9a91\u5355\u8f66
p1273
aV\u4e1b
aV\u628a\u59b9
p1274
aVHi
p1275
aV\u524d\u53bb
p1276
aV\u5339
aVHa
p1277
aV\u4ea7\u751f
p1278
aV\u7eaa\u5f55\u7247
p1279
aV\u6ce8\u5b9a
p1280
aV\u9752\u82b1\u74f7
p1281
aV\u611f\u53d7
p1282
aV\u68f5
aV\u6c38\u65e0\u6b62\u5c3d
p1283
aV\u4e50\u7ae0
p1284
aV\u9762\u671d
p1285
aV\u5ea6
aV\u6846
aV\u69bb\u69bb\u7c73
p1286
aV\u96b6
aV\u8bb2\u7a76
p1287
aV\u9f13\u52b1
p1288
aV\u6cbc\u6cfd
p1289
aV\u7528\u529f
p1290
aV\u6027\u611f
p1291
aV\u5355\u624b
p1292
aV\u770b\u6765
p1293
aV\u7b26\u53f7
p1294
aV\u5e8f
aV\u57cb\u846c
p1295
aV\u81ea\u987e\u81ea
p1296
aV\u77f3\u677f\u8def
p1297
aV\u500b
aV\u521a\u624d
p1298
aV\u4e03\u91cc\u9999
p1299
aV\u56de\u8f6c
p1300
aV\u98ce\u706b
p1301
aV\u5ea7
aV\u51b0\u51b7
p1302
aV\u677e\u624b
p1303
aV\u5f02\u65cf
p1304
aV\u8f6c\u53d8
p1305
aV\u504f
aV\u8336\u58f6
p1306
aV\u610f\u5916
p1307
aV\u82b1\u6735
p1308
aV\u8a18\u5f97
p1309
aV\u6775
aV\u51fa\u4e4e
p1310
aV\u5531\u8d77
p1311
aV\u5e7b\u60f3
p1312
aV\u590f\u5929
p1313
aV\u6cb8\u817e
p1314
aV\u54e9
aV\u4e8b\u5b9e
p1315
aV\u5c40
aV\u6e17\u900f
p1316
aV\u6e29\u5ea6
p1317
aV\u4e0d\u5c48
p1318
aV\u56f0\u517d
p1319
aV\u7537\u5b50
p1320
aV\u8840\u8109
p1321
aV\u517b
aV\u5206\u949f
p1322
aV\u6709\u79cd
p1323
aV\u540d\u79f0
p1324
aV\u7ba1
aV\u5305\u62ec
p1325
aV\u539f\u5730
p1326
aV\u8fd9\u8f88\u5b50
p1327
aV\u70e7
aV\u7cd6\u917f
p1328
aV\u6bcd\u6591\u9e20
p1329
aV\u65cf\u4eba
p1330
aV\u6700\u521d
p1331
aV\u8749
aV\u71c8\u7184
p1332
aV\u523b\u4e0b
p1333
aV\u8ddf\u4e0a
p1334
aV\u4ee3\u66ff
p1335
aV\u53d8\u6697
p1336
aV\u654c\u5bf9
p1337
aV\u4e4b\u4e0a
p1338
aV\u9694\u6c5f
p1339
aV\u4e3a\u654c
p1340
aV\u6beb
aV\u4f20\u4e16
p1341
aV\u8282\u62cd
p1342
aV\u539a\u539a
p1343
aV\u653e\u5fc3
p1344
aV\u98ce\u5316
p1345
aV\u653b\u51fb
p1346
aV\u9c9c\u5ae9
p1347
aV\u5b66\u4eba
p1348
aV\u5e74\u5e7c
p1349
aV\u5634\u91cc
p1350
aV\u865a\u62df
p1351
aV\u4eea\u8868
p1352
aV\u8d56
aV\u8c61\u5f81
p1353
aV\u4efb\u4f55
p1354
aV\u8fc7\u63e1
p1355
aV\u76f4\u63a5
p1356
aV\u5236\u4f5c
p1357
aV\u6f2b\u8349
p1358
aV\u9999\u6d53
p1359
aV\u8bf4\u7a7f
p1360
aV\u5931\u7720
p1361
aV\u5e73\u5730
p1362
aV\u7231\u6de1
p1363
aV\u5bab\u5ef7
p1364
aV\u4ece\u4e2d
p1365
aV\u53cd\u5c04
p1366
aV\u706b\u8f6e
p1367
aV\u7b11\u610f
p1368
aV\u4ec7\u6068
p1369
aV\u59d1\u5a18
p1370
aV\u70e7\u6bc1
p1371
aV\u8fd8\u662f\u8bf4
p1372
aV\u79c0\u9017
p1373
aV\u6548\u5fe0
p1374
aV\u7ec8\u573a
p1375
aV\u8f6c
aV\u6ca1\u6cd5
p1376
aV\u6253\u635e
p1377
aV\u5f85\u7eed
p1378
aV\u7ea2
aV\u773c\u770b\u7740
p1379
aV\u76d2
aV\u6311\u5254
p1380
aV\u5373\u4f7f
p1381
aV\u597d\u8fc7
p1382
aV\u51b2\u6d6a
p1383
aV\u5c71\u4e18
p1384
aV\u8bfb\u5230
p1385
aV\u513f\u5b50
p1386
aV\u9e20
aV\u8f7b\u529f
p1387
aV\u6b66\u529f
p1388
aV\u73ab\u7470
p1389
aV\u8fc1
aV\u4e0d\u7ba1
p1390
aV\u6b43\u8840
p1391
aV\u5f92\u7559
p1392
aV\u521d\u604b
p1393
aV\u5929\u4f7f
p1394
aV\u7535\u89c6
p1395
aV\u7f16\u7ec7
p1396
aV\u52a8
aV\u5438
aV\u67d3\u8272
p1397
aV\u52c9\u5f3a
p1398
aV\u9a6c\u529b
p1399
aV\u51e0\u5341
p1400
aV\u9a6c\u8e44\u58f0
p1401
aV\u7eaf\u7cb9
p1402
aV\u73cd\u60dc
p1403
aVor
p1404
aV\u91cc\u51b3
p1405
aV\u9082\u9005
p1406
aV\u4efb\u610f
p1407
aV\u7a7a\u95f4
p1408
aVhey
p1409
aV\u5d69\u5c71
p1410
aV\u8aaa
aV\u987a\u4fbf
p1411
aV\u5e74\u5934
p1412
aV\u597d\u4e0d\u5bb9\u6613
p1413
aV\u6d17
aV\u611f
aV\u4e71
aV\u4e0a\u763e
p1414
aV\u6ee1\u57ce
p1415
aV\u638c\u6015
p1416
aV\u4e00\u65c1
p1417
aV\u8845
aV\u5824
aV\u6e7f
aV\u5fe0
aV\u4ea4\u9519
p1418
aV\u4eb2\u7231\u7684
p1419
aV\u6d41\u773c\u6cea
p1420
aV\u84b2\u516c\u82f1
p1421
aV\u582a
aV\u7eff\u5730
p1422
aV\u4eff
aV\u5986
aVtea
p1423
aV\u4e00\u9635\u5b50
p1424
aV\u5929\u7a97
p1425
aV\u6212\u6307
p1426
aV\u5f35
aV\u96e8\u5929
p1427
aV\u5f00\u88c2
p1428
aV\u6148\u7965
p1429
aV\u8885\u8885
p1430
aV\u548c\u5e73
p1431
aV\u7834\u57ce
p1432
aV\u8303\u7279\u897f
p1433
aV\u7535\u5f71
p1434
aV\u5e26\u8d70
p1435
aV\u5c31\u7b97\u662f
p1436
aV\u5c11\u6797
p1437
aV\u6708\u8272
p1438
aV\u7f69
aV\u64e6\u4eae
p1439
aV\u62a2
aV\u8352\u70df
p1440
aV\u5c3d\u91cf
p1441
aV\u906e\u853d
p1442
aV\u72c2
aV\u543c`
p1443
aV\u654c\u610f
p1444
aV\u6253\u8f6c
p1445
aV\u6ce5\u677f
p1446
aV\u5b9a
aV\u7528\u6765
p1447
aV\u5439\u7740
p1448
aV\u8bb0\u4f4f
p1449
aV\u72e0\u72e0
p1450
aV\u653e\u6674
p1451
aV\u5356
aV\u73cd\u8d35
p1452
aV\u53cb\u60c5
p1453
aV\u8bc1\u636e
p1454
aV\u770b\u770b
p1455
aV\u5175\u5668
p1456
aV\u5f69\u8679
p1457
aV\u5730\u72f1
p1458
aV\uff09
aV\u63a5\u4e0b\u6765
p1459
aV\u5173\u4e0a
p1460
aV\u6bc5\u529b
p1461
aV\u8d70\u5eca
p1462
aV\u66f2\u98ce
p1463
aV\u7f9e
aV\u90a3\u6837
p1464
aV\u754f\u60e7
p1465
aV\u9759
aV\u5207\u8bb0
p1466
aV\u68a6\u5883
p1467
aV\uff08
aV\u614c
aV\u96f6\u5230
p1468
aV\u518d\u8bf4
p1469
aV\u8fdc\u53e4
p1470
aV\u8ba8\u538c
p1471
aV\u538b\u529b
p1472
aV\u8424\u706b\u866b\u5e26\u8457
p1473
aV\u60c5\u8282
p1474
aV\u8e29
aV\u8def\u8fb9
p1475
aV\u6655\u5f00
p1476
aV\u4eba\u7c7b
p1477
aV\u6a21\u4eff
p1478
aV\u8868\u54e5
p1479
aV\u751f\u6b7b
p1480
aV\u5373\u5174
p1481
aV\u6697\u53f7
p1482
aV\u6b7b
aV\u53d7\u7f6a
p1483
aV\u505a\u4e8b
p1484
aV\u6536
aV\u7b80\u7b80\u5355\u5355
p1485
aV\u793a\u597d
p1486
aV\u7409\u7483
p1487
aV\u53c2\u52a0
p1488
aV\u9501
aV\u8d70\u58c1
p1489
aV\u6323\u8131
p1490
aV\u7f1d
aV\u8bfb\u5b8c
p1491
aV\u8bf4\u4e0d
p1492
aV\u578b\u7537
p1493
aV\u6726\u6727
p1494
aV\u5e7d\u5e7d
p1495
aV\u7f18\u5206
p1496
aV\u7a3b\u9999
p1497
aV\u4f0f\u7b14
p1498
aV\u6194
aV\u5199\u4e0a
p1499
aV\u4eb2\u624b
p1500
aV\u9171
aV\u55e8
aV\u68cd\u67d4
p1501
aV\u4eb2\u543b
p1502
aV\u7248
aV\u6709\u6a21\u6709\u6837
p1503
aV\u5b89\u6392
p1504
aV\u6d41\u6d6a
p1505
aV\u66b4\u98ce\u5708
p1506
aV\u82b1\u843d\u4eba
p1507
aV\u561f\u5634\u8bb8
p1508
aV\u4e1c\u65b9\u65e0\u6127
p1509
aV\u660e\u4eae
p1510
aV\u6d12
aV\u677f\u8f6c\u52a8
p1511
aV\u711a
aV\u505c\u683c
p1512
aV\u732e
aV\u7559\u5728
p1513
aV\u540c\u5b66
p1514
aV\u9ed8\u80cc
p1515
aV\u86cb
aV\u8fd1
aV\u519c\u592b\u4eec
p1516
aV\u6e05\u9192
p1517
aV\u6210\u771f
p1518
aV\u8776
aV\u5de6\u624b
p1519
aV\u5f69\u8272
p1520
aV\u704c\u6728
p1521
aV\u4f55\u6765
p1522
aV\u5ffd\u7565
p1523
aV\u7ea2\u8272
p1524
aV\u65cb\u5f8b
p1525
aV\u7f8e\u597d
p1526
aV\u524d\u671d
p1527
aV\u5357\u4e0b
p1528
aV\u654c
aV\u547c\u5524
p1529
aV\u638c\u58f0
p1530
aV\u604b\u6218
p1531
aV\u65ad\u80a0
p1532
aV\u9875\u9875
p1533
aV\u6bdb\u7403
p1534
aV\u592a\u6781
p1535
aV\u5e7f\u573a
p1536
aV\u53d1\u82bd
p1537
aV\u73af\u7ed5
p1538
aV\u7af9\u873b\u8713
p1539
aV\u559d\u6c34
p1540
aV\u751c\u751c
p1541
aV\u652f\u6301
p1542
aV\u5931\u843d
p1543
aV\u6c38\u4e16
p1544
aV\u6813\u4e0a
p1545
aV\u7d66
aV\u76df
aV\u9a6c
aV\u7b49\u5019
p1546
aV\u5207
aV\u96e8\u5237
p1547
aV\u8e0f
aV\u7626\u9a6c
p1548
aV\u559d\u8336
p1549
aV\u5e03\u6ee1
p1550
aV\u60b4
aV\u4e66\u5305
p1551
aV\u4e2d\u56fd
p1552
aV\u611f\u8c22
p1553
aV\u8eab\u4e16
p1554
aV\u72e9\u730e
p1555
aV\u80f8\u819b
p1556
aV\u5f00\u5927
p1557
aV\u6e56\u9762
p1558
aV\u4e0b\u6c89
p1559
aV\u63a5\u7740
p1560
aV\u6212
aV\u7070\u5c18
p1561
aV\u62db\u724c
p1562
aV\u75a4
aV\u72b9\u8c6b
p1563
aV\u4e66\u523b
p1564
aV\u56de\u5e94
p1565
aV\u773c\u7738
p1566
aV\u9003\u8dd1
p1567
aV\u5ea7\u6905
p1568
aV\u8ddf\u8457
p1569
aV\u4e00\u7b14\u52fe\u9500
p1570
aV\u5929\u53f0
p1571
aV\u661f\u7a7a
p1572
aV\u5f88\u96be
p1573
aV\u6642\u5019
p1574
aV\u803f\u76f4
p1575
aV\u8dcc\u5012
p1576
aV\u707f\u70c2
p1577
aV\u677e
aV\u8033\u6fe1\u76ee\u67d3
p1578
aV\u964d\u843d
p1579
aV\u6b22\u4e50
p1580
aV\u4e86\u7ed3
p1581
aV\u53ef\u60dc
p1582
aV\u529b\u91cf
p1583
aV\u5e55\u5e55
p1584
aV\u8ffd\u6c42
p1585
aV\u6f2b\u753b
p1586
aV\u5439\u5f97
p1587
aV\u5636\u543c
p1588
aV\u65ad\u6389
p1589
aV\u52a1\u5fc5
p1590
aV\u5347\u8d77
p1591
aV\u7f9e\u602f
p1592
aV\u8d70\u5728
p1593
aV\u6ca1\u6536
p1594
aV\u4e00\u518d
p1595
aV\u98d8\u5f97\u54bf
p1596
aV\u63d0
aV\u6597.
p1597
aV\u7977\u544a
p1598
aV\u6c9f\u901a
p1599
aV\u6210\u4e3a
p1600
aV\u81ea\u5728
p1601
aV\u793c\u8c8c
p1602
aV\u594b\u529b
p1603
aV\u8001\u6591\u9e20
p1604
aV\u5bb6\u65cf
p1605
aV\u63a5\u53d7
p1606
aV\u516c\u91cc
p1607
aV\u5149\u660e
p1608
aV\u4f9d\u7136
p1609
aV\u57ce\u5899
p1610
aV\u5370\u5730\u5b89\u8001\u6591\u9e20
p1611
aV\u8bc9\u8bf4
p1612
aV\u5c81
aV\u767d\u9e3d
p1613
aV\u6491
aV\u6295
aV\u971c
aV\u4ecd
aV\u5fc3\u75db
p1614
aV\u65e5\u671f
p1615
aV\u62c5\u5fe7
p1616
aV\u9707
aV\u5931\u5fc6
p1617
aV\u8bf4\u8c0e
p1618
aV\u6954\u5f62
p1619
aV\u8a93\u65e6\u65e6
p1620
aV\u4e0d\u62b5
p1621
aV\u7a1a\u6c14
p1622
aV\u8d25\u7ed9
p1623
aV\u6109\u5feb
p1624
aV\u505a\u4eba
p1625
aV\u4e52\u4e53
p1626
aV\u62ff\u8d77
p1627
aV\u6ecb
aV\u8fd9\u5929
p1628
aV\u660e\u663e
p1629
aV\u6a1f\u6728
p1630
aVCoffee
p1631
aV\u5370\u5730\u5b89\u6591
p1632
aV\u5b57\u8ff9
p1633
aV\u74dc
aV\u8ba4\u771f
p1634
aV\u6c92
aV\u6d74\u706b
p1635
aV\u5927\u5e08
p1636
aV\u6765\u7535
p1637
aV\u9884\u8b66
p1638
aV\u5b98
aV\u63a8
aV\u51fb\u6e83
p1639
aV\u6d0b\u6ea2
p1640
aV\u7269\u6b7b
p1641
aV\u8106\u5f31
p1642
aV\u672a\u592e
p1643
aV\u7b2c\u516d
p1644
aV\u8033\u6735
p1645
aV\u6000\u5ff5
p1646
aV\u817f
aV\u5e73\u5b89
p1647
aV\u5ba2\u5385
p1648
aV\u660e\u4e86
p1649
aV\u5931\u604b
p1650
aV\u4e00\u6a23
p1651
aV\u8bdd\u8bf4\u5b8c
p1652
aV\u58a8\u67d3
p1653
aV\u5b57\u5178
p1654
aV\u60ca\u559c
p1655
aV\u8ffd\u96be
p1656
aV\u6df1\u5904
p1657
aV\u53f3\u4e0b\u65b9
p1658
aV\u5e72\u71e5
p1659
aV\u76cf
aV\u540d\u53eb
p1660
aV\u7eb8
aVGO
p1661
aV\u96be\u4ee5
p1662
aV\u770b\u4f3c
p1663
aV\u74e3
aV\u4f9d\u4f9d\u4e0d\u820d
p1664
aV\u6101
aV\u679a
aV\u62cb\u5f00
p1665
aV\u610f\u601d
p1666
aV\u9418\u5174\u6c11
p1667
aV\u8c0e\u8a00
p1668
aV\u65f6\u523b
p1669
aV\u5398\u7c73
p1670
aV\u89c6
aV\u9519\u60c5
p1671
aV\u5fc3\u8840
p1672
aV\u8bdd\u9898
p1673
aV\u635e\u9c7c
p1674
aV\u5165\u573a
p1675
aV\u9c9c\u8273
p1676
aV\u4e8c\u5341\u4e09
p1677
aV\u5973\u670b\u53cb
p1678
aV\u5dfe
aV\u6b87
aV\u6c89
aV\u523a\u5200
p1679
aV\u5e95
aV\u5f04\u9519
p1680
aV\u8499
aV\u53ef\u7b11
p1681
aV\u94c1\u5320
p1682
aV\u534a\u7a7a
p1683
aV\u5ca9
aV\u6536\u770b
p1684
aV\u8fc7\u4eba
p1685
aV\u62bd\u75db
p1686
aV\u90bb\u5c45
p1687
aV\u4e03\u6708
p1688
aV\u6ee1\u5929
p1689
aV\u6df1\u523b
p1690
aV\u5bf9\u7acb
p1691
aV\u4ee5\u4e0a
p1692
aV\u89c6\u7ebf
p1693
aV\u53f7
aV\u508d\u665a
p1694
aV\u767d\u82b1
p1695
aV\u6307\u5c16
p1696
aV\u7af9\u7bf1\u7b06
p1697
aV\u5b9e\u529b
p1698
aV\u98df\u8c31
p1699
aV\u98a8\u666f
p1700
aV\u7247\u6bb5
p1701
aV\u6eab\u71b1
p1702
aV\u8001\u677f
p1703
aV\u968f\u6027
p1704
aV\u901a\u5f80
p1705
aV\u724c
aV\u7d42\u65bc
p1706
aV\u53f0\u4e0a
p1707
aV\u6e38\u8d70
p1708
aV\u676f
aV\u6709\u522b
p1709
aV\u5377
aV\u7425\u73c0\u8272
p1710
aV\u624b\u8327
p1711
aV\u4f20\u6765
p1712
aV\u679d\u6860
p1713
aV\u7b49\u6765\u6eda\u6070
p1714
aV\u5c0f\u8349
p1715
aV\u8ba4\u8bc6
p1716
aV\u591c\u7a7a
p1717
aV\u4e0b\u964d
p1718
aVfade
p1719
aV\u4e18\u9675
p1720
aV\u6210\u7070
p1721
aV\u5b8c\u6210
p1722
aV\u597d\u807d
p1723
aV\u53bb\u5230
p1724
aV\u751f\u6b7b\u72b6
p1725
aV\u6d77\u89d2
p1726
aV\u7262\u8bb0
p1727
aV\u5c18\u56a3
p1728
aV\u5408\u610f
p1729
aV\u6545\u610f
p1730
aV\u92fc\u7434
p1731
aV\u892a\u8272
p1732
aV\u5e38\u5e38
p1733
aV\u95f9\u533a
p1734
aV\u4e50\u89c2
p1735
aV\u4e91\u89d2
p1736
aV\u5e72\u6270
p1737
aV\u94dc\u677f
p1738
aV\u52a8\u673a
p1739
aV\u8fde\u7edc
p1740
aV\u5b50\u5f39
p1741
aV\u7e41\u534e
p1742
aV\u9a6c\u5c3e
p1743
aV\u56de\u65cb
p1744
aV\u8868\u73b0
p1745
aV\u7684\u58eb\u6c14
p1746
aV\u6742\u8baf
p1747
aV\u964c\u751f
p1748
aV\u4ec0\u9ebc
p1749
aV\u8f7b\u6613
p1750
aV\u54ea\u513f
p1751
aV\u6b66\u5fb7
p1752
aV\u5200\u950b
p1753
aV\u8001\u65e7
p1754
aV\u523a\u4f24\u4eba
p1755
aV\u7a0d\u5acc
p1756
aV\u98ce\u6c14
p1757
aV\u7b3c\u7f69
p1758
aV\u300b
aV\u6c11\u65cf
p1759
aV\u9057\u5f03
p1760
aV\u6253\u547c
p1761
aV\u7b50
aV\u5173\u5fc3
p1762
aV\u6726\u80e7
p1763
aV\u7f15
aV\u5c0f\u59d0\u5011
p1764
aV\u7ea6\u4f1a
p1765
aV\u6c92\u6709
p1766
aV\u5efa\u7b51
p1767
aV\u8dd1\u904d
p1768
aV\u5c71\u836f
p1769
aV\u8f88
aV\u652f
aV\u9d3f\u5b50
p1770
aV\u7ae0
aV\u9e1f
aV\u6c14\u7403
p1771
aV\u50f5\u5c38\u8e72\u6697\u5df7
p1772
aV\u62dc\u62dc
p1773
aV\u5954\u6708
p1774
aV\u53a2
aV\u7275\u8d77
p1775
aV\u6d41\u6cea
p1776
aV\u8352\u829c
p1777
aV\u5199\u8fdb
p1778
aV\u98ce\u7b1b
p1779
aV\u66fe
aV\u94fa
aV\u8bd7\u7bc7
p1780
aV\u6989
aV\u851a\u84dd
p1781
aV\u5420
aV\u78b0
aV\u4ea4\u7ed9
p1782
aV\u4e7e\u51c0
p1783
aV\u6742
aV\u5f52\u67b8\u675e
p1784
aV\u6591\u9e20
p1785
aV\u6df7\u4e71
p1786
aV\u767d\u6768
p1787
aV\u505a\u597d
p1788
aV\u8749\u7ffc
p1789
aV\u6c14\u6c1b
p1790
aV\u8bb8\u613f\u6c60
p1791
aV\u518d\u6709
p1792
aV\u5e9f\u7269
p1793
aV\u4e8e\u662f
p1794
aV\u63d2\u624b
p1795
aV\u56de\u5408
p1796
aV\u8003
aV\u808c\u80a4
p1797
aV\u70db\u5149
p1798
aV\u80af
aV\u72b6\u6001
p1799
aV\u597d\u6697
p1800
aV\u879e\u87fb
p1801
aV\u9634\u5929
p1802
aV\u9876\u7740
p1803
aV\u604b
aV\u6cea\u5149
p1804
aV\u72d7\uff5e\uff5e\uff5e
p1805
aV\u60f3\u6cd5
p1806
aV\u539f\u59cb
p1807
aV\u8bb0\u53f7
p1808
aV\u9ed8\u5267
p1809
aV\u9001\u5230
p1810
aV\u5229\u7528
p1811
aV\u6076\u591c
p1812
aV\u7f3a\u5e2d
p1813
aV\u633d\u7559
p1814
aV\u611f\u5192
p1815
aV\u9664\u4e86
p1816
aV\u675f\u767d
p1817
aV\u5df7\u5f04
p1818
aV\u4e86\u5f97
p1819
aV\u6700\u9ad8\u70b9
p1820
aV\u540e\u679c
p1821
aV\u94f6\u5e55
p1822
aV\u51b2\u52a8
p1823
aV\u771f\u76f8
p1824
aV\u7eb8\u7b14
p1825
aV\u91d1\u5b57\u5854
p1826
aV\u504e
aV\u4e00\u4f53
p1827
aV\u59d3
aV\u5168\u9762
p1828
aV\u6c99\u96d5
p1829
aV\u65b0\u95fb
p1830
aV\u7f3a\u70b9
p1831
aV\u671f\u671b
p1832
aV\u7fc5\u8180
p1833
aV\u7f2d\u7ed5
p1834
aV\u505a\u9519
p1835
aV\u76f8\u604b
p1836
aV\u8bd5\u77a7
p1837
aV\u6c38\u5782\u4e0d\u673d
p1838
aV\u5225
aV\u76ef\u4eba
p1839
aV\u6323\u5012
p1840
aV\u5e3d
aV\u5f20\u6b23\u745c
p1841
aV\u6c34\u9e7f
p1842
aV\u56e2
aV\u91cd\u91cd
p1843
aV\u836f
aVmia
p1844
aV\u6977\u7ed9
p1845
aV\u56f4\u7ed5
p1846
aV\u6fc0\u52a8
p1847
aV\u4e1c\u6d41
p1848
aV\u6218
aV\u60ca\u53f9
p1849
aV\u9999\u6ab3
p1850
aV\u6218\u4e71
p1851
aV\u8d76\u5feb
p1852
aV\u54c8\u54c8\u54c8\u54c8\u54c8\u54c8
p1853
aV\u4e3b\u4eba
p1854
aV\u5360\u535c
p1855
aV\u5531\u620f
p1856
aV\u6df1\u6df1
p1857
aV\u84dd\u5929
p1858
aV\u65f6\u4ee3
p1859
aV\u7167\u8df3
p1860
aV\u9677\u5165
p1861
aV\u8981\u4e0d
p1862
aV\u6c89\u91cd
p1863
aV\u635f\u5931
p1864
aV\u4fe1\u53f7
p1865
aV\u56de\u61b6
p1866
aV\u4f31
aV\u4f7b\u773c\u795e
p1867
aV\u5f02\u5e38
p1868
aV\u8d77\u8dd1
p1869
aV\u5348\u591c
p1870
aV\u62bc\u97fb
p1871
aV\u9000\u56de
p1872
aV\u56e0
aV\u62a2\u7bee\u677f
p1873
aV\u62a5\u544a
p1874
aV\u76f8\u901a
p1875
aV\u6c38\u6052
p1876
aV\u5bb6\u5ead
p1877
aV\u624b\u5199
p1878
aV\u644a\u4f4d
p1879
aV\u51b2
aV\u6597
aV\u6cbc\u6c14
p1880
aV\u98de\u5230
p1881
aV\u5206\u79bb
p1882
aV\u6218\u8f66
p1883
aV\u5636
aV\u9001\u51fa
p1884
aV\u82f9\u679c
p1885
aV\u54cd
aV\u5178\u793c
p1886
aV\u5316\u88c5
p1887
aV\u8537\u8587
p1888
aV\u6325\u5200
p1889
aV\u4ee3\u8a8c
p1890
aV\u5426\u5b9a
p1891
aV\u82e6
aV\u4e3e\u624b
p1892
aV\u6674\u5929
p1893
aV\u5e72\u67af
p1894
aV\u773c\u955c
p1895
aV\u51b7\u6218
p1896
aV\u9762\u4e34
p1897
aV\u6696
aV\u5730\u4e0b
p1898
aV\u98ce\u5e72
p1899
aV\u53cd\u8986
p1900
aV\u6cb9\u818f
p1901
aV\u5bf9\u624b\u620f
p1902
aV\u5fc3\u4f24
p1903
aV\u65e0\u6240\u8c13
p1904
aV\u82ac\u82b3
p1905
aV\u778e\u901b
p1906
aV\u4ece\u6b64
p1907
aV\u6b62\u6218
p1908
aV\u5012\u4e0b
p1909
aV\u534a\u5c9b
p1910
aV\u7ed3\u6676
p1911
aV\u5929\u7070\u7070
p1912
aV\u60da
aV\u90e8\u961f
p1913
aV\u7528\u529b
p1914
aV\u74e2
aV\u94c1\u95e8
p1915
aV\u88c5\u6ee1
p1916
aV\u5f71\u7247
p1917
aV\u9001\u7ed9
p1918
aV\u5389\u5bb3
p1919
aV\u676f\u57ab
p1920
aV\u751c\u5473
p1921
aV\u5fc3\u60ac
p1922
aV\u518d\u6b21
p1923
aV\u5fc3\u60c5
p1924
aVfafa
p1925
aV\u5176\u5b83
p1926
aV\u9214\u7968
p1927
aV\uff5e\u62f3
p1928
aV\u9ea6\u6401
p1929
aV\u6674
aV\u6208
aV\u751c\u54c1
p1930
aV\u829c
aV\u6d45\u6d45
p1931
aV\u540d\u5b57
p1932
aV\u56fe
aV\u6253\u7ffb
p1933
aV\u9501\u7709
p1934
aV\u65ad\u65ad\u7eed\u7eed
p1935
aV\u5766\u767d
p1936
aV[
aV\u8df3\u8fc7
p1937
aV\u63d0\u4f9b
p1938
aV\u4f53\u4f1a
p1939
aV\u8749\u9e23
p1940
aV\u68af\u7530
p1941
aV\u6587\u7269
p1942
aV\u6d77\u62a5
p1943
aV\u732a
aV\u65e0\u90aa
p1944
aV\u516c\u8001\u9f20
p1945
aV\u61e6\u592b
p1946
aV\u5e9f\u5f03
p1947
aV\u641e
aV\u517d\u5316
p1948
aV\u89c9\u609f
p1949
aV\u7480\u74a8
p1950
aV\u5b58\u6d3b
p1951
aV\u884c\u5c38\u8d70\u8089
p1952
aV\u67af\u840e
p1953
aV\u8dc3
aV\u6b63\u5728
p1954
aV\u9762\u7121\u8868\u60c5
p1955
aV\u66b4\u6652
p1956
aV\u638c
aV\u795e\u6c14
p1957
aV\u6865\u6bb5
p1958
aV\u8c37\u5e95
p1959
aV\u5173\u95e8
p1960
aV\u6574\u4e2a
p1961
aV\u521a\u521a
p1962
aV\u554a\u54c8
p1963
aV\u9002\u5408
p1964
aV\u51dd\u89c6
p1965
aV\u5047\u5982
p1966
aV\u671f
aV\u5bbd\u6055
p1967
aV\u6709\u7a7a
p1968
aV\u5148\u751f
p1969
aV\u767d\u86e6\u4e18
p1970
aV\u723d
aV\u5947\u8de1
p1971
aV\u518d\u559d
p1972
aV\u65e0\u4e0b\u4e16
p1973
aV\u6740\u6c14
p1974
aV\u51fa\u4e8e
p1975
aV\u53ef\u53e3
p1976
aV\u671d\u4ee3
p1977
aV\u8c61\u5fb5
p1978
aV\u63d0\u8d77
p1979
aV\u7529\u5c3e
p1980
aV\u5a01\u5ec9
p1981
aV\u81f4\u547d
p1982
aV\u96f7\u6770
p1983
aV\u5feb\u653b
p1984
aV\u629a\u6170
p1985
aV\u903c
aV\u62e5\u6324
p1986
aV\u6bc1
aV\u5f3a\u8005
p1987
aV\u6d6a\u8ff9
p1988
aV\u6346
aV\u4e8b\u4e0e\u613f\u8fdd
p1989
aV\u6c34\u91cc
p1990
aV\u660f\u5934
p1991
aV\u8d64\u8db3
p1992
aV\u903c\u8fd1
p1993
aV\u6865\u6881
p1994
aV\u8f93\u54e9
p1995
aV\u6f6e
aV\u6cea\u6655
p1996
aVluozx
p1997
aV\u653e\u7eb5
p1998
aV\u9192
aV\u624b\u6bb5
p1999
aV\u614c\u4e71
p2000
aV\u75d5\u8ff9
p2001
aV\u996e
aV\u9084\u662f
p2002
aV\u53ea\u5f97
p2003
aVOhOh
p2004
aV\u57cb\u540d
p2005
aV\u7236\u4eb2
p2006
aV\u8bd5\u56fe
p2007
aV\u73af\u5883
p2008
aV\u5f77\u5f7f
p2009
aV\u4eae
aV\u95ea
aV\u505a\u5b8c
p2010
aV\u4e0b\u5348
p2011
aV\u5200\u5212
p2012
aV\u4e91\u5c42
p2013
aV\u65f6\u5c1a
p2014
aV\u955c\u6620
p2015
aV\u65e0\u529b
p2016
aV\u699c\u6837
p2017
aV\u62c9\u4e01\u6587
p2018
aV\u69a8
aV\u9152\u6696
p2019
aV\u9ed1\u677f
p2020
aV\u72ee\u8eab
p2021
aV\u54ce
aV\u7ecf
aV\u706f\u95ea
p2022
aV\u5168\u8eab
p2023
aV\u4eba\u9762
p2024
aV\u8d3c
aV\u53e3\u7f69
p2025
aV\u91cd\u5fa9
p2026
aV\u7f3a
aV\u5723\u8bde
p2027
aV\u51ef\u8428\u7433
p2028
aV\u8ba9\u9519
p2029
aV\u6eb6\u5316
p2030
aV\u8bc0
aV\u5e76
aV\u62dc\u6258
p2031
aV\u8bbd\u523a
p2032
aV\u4f5c\u54c1
p2033
aV\u5f1f\u5144
p2034
aV]
aV\u4e2d\u65ad
p2035
aV\u82b1\u843d
p2036
aV\u5dee\u5f02
p2037
aV\u50cf\u7cd6
p2038
aV\u6566\u714c
p2039
aV\u524d\u5ea6
p2040
aV\u6728\u677f
p2041
aV\u5f04\u5802
p2042
aV\u4e8b\u5173
p2043
aV\u627e\u5bfb
p2044
aV\u78b0\u5230
p2045
aV\u5c71\u8c37
p2046
aV\u813e\u6c14
p2047
aV\u4e0d\u59a5
p2048
aV\u5fc3\u4f24\u900f
p2049
aV\u6742\u8349
p2050
aV\u5e95\u683c\u91cc\u65af\u6cb3
p2051
aV\u6676\u83b9
p2052
aV\u7eff\u8272
p2053
aV\u4e66\u6cd5
p2054
aV\u94f6\u5236
p2055
aV\u65e9\u9910
p2056
aV\u725b\u513f
p2057
aV\u5212\u8fc7
p2058
aV\u5fe0\u8bda
p2059
aV\u82f1\u6c14
p2060
aV\u7792
aV\u79e6\u60c5\u54bf
p2061
aV\u56de\u8bdd
p2062
aV\u53d1\u9999
p2063
aV\u9488\u5730
p2064
aV\u7d20\u63cf
p2065
aV\u6709\u7f6a
p2066
aV\u7acb\u529f
p2067
aV\u76f2\u76ee
p2068
aV\u9965\u8352
p2069
aV\u5bf9\u9762
p2070
aV\u7b49\u8457
p2071
aV\u64cd\u5fc3
p2072
aV\u5ba3\u5e03
p2073
aV\u6c7d\u6c34
p2074
aV\u6b49\u759a
p2075
aV\u5929\u7834\u606f
p2076
aV\u9525\u5fc3
p2077
aV\u653e\u592a
p2078
aV\u5492\u8bed
p2079
aV\u4f55\u5728
p2080
aV\u63a0\u8fc7
p2081
aV\u53e4\u5821\u91cc
p2082
aV\u55d3
aV\u5b88
aV\u7eb8\u838e\u8349
p2083
aV\u5e86\u795d
p2084
aV\u6ce2\u5170
p2085
aV\u7239\u5a18
p2086
aV\u81f3
aV\u7406\u89e3
p2087
aV\u8f7b\u91cd
p2088
aV\u82e6\u75db
p2089
aV\u5206\u5316
p2090
aV\u4f34\u594f
p2091
aV\u5e72\u6d41
p2092
aV\u4e09\u5343
p2093
aV\u7559\u7ed9\u5929
p2094
aV\u6ef4
aV\u89aa\u8fd1
p2095
aV\u82e5\u9690\u82e5\u73b0
p2096
aV\u9a6c\u4e0a
p2097
aV\u706b\u7089
p2098
aV\u6cb3\u5e8a
p2099
aV\u54d1\u53e3
p2100
aV\u591a\u591a
p2101
aV\u8c6a\u6c14
p2102
aV\u67dc
aV\u635f
aV\u957f\u6c5f
p2103
aV\u8fdc\u8d70
p2104
aV\u8273\u9633
p2105
aV\u8fb9\u9672
p2106
aV\u5f00\u4e00\u74f6
p2107
aV\u5e26\u6709
p2108
aV\u4e0b\u5999
p2109
aV\u4e3e\u676f
p2110
aV\u5fae\u5999
p2111
aV\u6eaa\u6d41
p2112
aV\u6628\u665a
p2113
aV\u98d8\u52a8
p2114
aV\u54a7
aV\u53cd\u800c
p2115
aV\u4eca\u65e5
p2116
aV\u5976\u6cb9
p2117
aV\u5343\u904d
p2118
aVAE86
p2119
aV\u5c4c
aV\u9650
aV\u89d2\u5ea6
p2120
aV\u8eb2\u8fc7
p2121
aV\u5ce1\u8c37
p2122
aV\u8f6c\u751f
p2123
aV\u4e3e\u6b62
p2124
aV\u7a7a\u8361\u8361
p2125
aV\u6253\u5b57\u673a
p2126
aV\u4e09\u70b9
p2127
aV\u89e3\u8bfb
p2128
aV\u5c3d
aV\u75db\u5feb
p2129
aV\u6495\u4e0b
p2130
aV\u4f0a\u64cd\u5fc3
p2131
aV\u5982\u7a7a
p2132
aV\u5e9f\u589f
p2133
aV\u9752\u53f2
p2134
aV\u5439\u52a8
p2135
aV\u4e16\u9053
p2136
aV\u5750\u8f66
p2137
aV\u5f92\u589e
p2138
aV\u6ce5\u571f
p2139
aV\u6218\u5f79
p2140
aV\u5bb9\u989c
p2141
aV\u6469\u6258\u8f66
p2142
aV\u5751
aV\u7bee\u7403
p2143
aV\u53d7\u591f
p2144
aV\u5927\u81ea\u7136
p2145
aV\u5507\u5370
p2146
aV\u9152\u9986
p2147
aV\u52a8\u7269
p2148
aV\u4e0a\u9762
p2149
aV\u5199\u5b8c
p2150
aV\u6346\u7ed1
p2151
aV\u6253\u7834
p2152
aV\u9178\u9178
p2153
aV\u54d2\u5570
p2154
aV\u590d\u4e60
p2155
aV\u4ed3\u5e93
p2156
aV\u6bd5\u4e1a
p2157
aV\u6551\u63f4
p2158
aV\u957f\u6ee1
p2159
aV\u6458\u4e0b
p2160
aV\u8fd0\u7403
p2161
aV\u4e0b\u7b14
p2162
aV\u6325\u6563
p2163
aV\u9017
aV\u4f24\u53e3
p2164
aV\u5438\u5b8c\u8840\u540e
p2165
aV\u4e0b\u7bf7
p2166
aV\u6253\u70ca
p2167
aV\u75bc
aV\u9ec4\u91d1\u845b
p2168
aV\u5b63
aV\u65e0\u9650
p2169
aV\u98ce\u971c
p2170
aV\u917f
aV\u5927\u98ce\u5439
p2171
aV\u51cc\u6668
p2172
aV\u7761\u53bb
p2173
aV\u7ba1\u98ce\u7434
p2174
aV\u7f8e\u8273
p2175
aV\u8d25\u574f
p2176
aV\u70b9\u5fc3
p2177
aVgia\u74dc
p2178
aV\u5927\u529b
p2179
aV\u7518\u597d
p2180
aV\u5317\u98ce\u4e71
p2181
aV\u5f2f\u66f2
p2182
aV\u652f\u6491
p2183
aV\u67e5
aV\u70eb
aV\u76ef
aV\u4e00\u7a7a
p2184
aV\u5deb
aV\u964d\u4e34
p2185
aV\u5f03\u5b88
p2186
aV\u7acb\u573a
p2187
aV\u542c\u9519
p2188
aV\u5361\u7247
p2189
aV\u53cd\u5e94
p2190
aV\u9050
aV\u6d41\u884c
p2191
aV\u6bd2
aV\u897f\u88c5
p2192
aV\u6cd5\u8bed
p2193
aV\u62bd\u6410
p2194
aV\u626d\u8170
p2195
aV\u56de\u97f3
p2196
aV\u4e00\u6e05
p2197
aV\u79c3\u9e70
p2198
aV\u53d6
aV\u768e\u6d01
p2199
aV\u63e1\u63e1
p2200
aV\u60c5\u602f
p2201
aV\u4eca\u665a
p2202
aV\u8f9b\u8f9b
p2203
aV\u865a
aV\u7eb8\u4f1e
p2204
aV\u6f2b\u5ef6
p2205
aV\u9634\u6697
p2206
aV\u4e0a\u68a2
p2207
aV\u6361
aV\u5929\u5e73
p2208
aV\u95dc\u5fc3
p2209
aV\u51b2\u51fa
p2210
aV\u4f46\u613f
p2211
aV\u5973\u751f
p2212
aV\u5e8a
aV\u7d27\u5f20
p2213
aV\u6e05\u6f88
p2214
aV\u4e1f
aV\u5d0e\u5d87\u4e0d\u5e73
p2215
aV\u51b0\u68d2
p2216
aV\u6b66\u6797
p2217
aV\u7834\u6653
p2218
aV\u5c01\u9762
p2219
aV\u96e8\u5b63
p2220
aV\u611f\u540c\u8eab\u53d7
p2221
aV\u8bd5\u7ec3
p2222
aV\u62e2
aV\u6625\u79cb
p2223
aV\u8eb2\u907f
p2224
aV\u81ea\u79c1
p2225
aV\u8fb9\u7f18
p2226
aV\u8352
aV\u6d77\u6c34
p2227
aV\u9a6c\u8e44
p2228
aV\u6f2b\u8fc7
p2229
aV\u6587\u4ef6
p2230
aV\u8349\u539f
p2231
aV\u4e89
aV.\u7b11\u5e73\u5e38
p2232
aV\u683c
aV\u9762\u5411
p2233
aV\u9884\u62a5
p2234
aV\u55c5
aV\u61c2\u4e8b
p2235
aV\u8336\u8272
p2236
aV\u4f20\u5f00
p2237
aV\u5360\u9886
p2238
aV\u6df1\u79cb
p2239
aV\u7cdf
aV\u65e0\u5173\u7d27\u8981
p2240
aV\u7b54\u5e94
p2241
aV\u957f\u53d1
p2242
aV\u7fd8\u8bfe
p2243
aV\u5531\u76d8
p2244
aV\u4e13
aV\u8f6c\u89d2
p2245
aV\u6321
aV\u53d8\u5f3a
p2246
aV\u706b\u7130
p2247
aV............
p2248
aVMr.J
p2249
aV\u6c49\u5b57
p2250
aV\u8150\u8d25
p2251
aV\u795d
aV\u82d4
aV\u5bfb\u6839
p2252
aV\u6f14\u5316
p2253
aV\u5e73
aV\u4ed4\u4ed4\u7ec6\u7ec6
p2254
aV\u604d\u60da
p2255
aV\u8857\u574a
p2256
aV\u65e9\u6668
p2257
aV\u8fdc\u79bb
p2258
aV\u7ba1\u5bb6
p2259
aV\u6536\u89c6\u7387
p2260
aV\u8138\u5e9e
p2261
aV\u90ae\u5bc4
p2262
aV\u54cd\u5c3e\u86c7
p2263
aV\u5927\u63d0\u7434
p2264
aV\u610f
aV\u843d\u816e\u80e1
p2265
aV\u9635\u5730
p2266
aV\u5e73\u8eba
p2267
aV\u647a
aV\u4f0a\u4eba
p2268
aV\u7ea6\u7ff0
p2269
aV\u7948\u7977\u005c
p2270
aV\u9632\u5b88
p2271
aV\u65e0\u8a00
p2272
aV\u738b\u724c
p2273
aV\u997f\u660f
p2274
aV\u841d\u535c
p2275
aV\u5899
aV\u8584\u8377\u5473
p2276
aV\u610f\u6599
p2277
aV\u8dcc\u592a
p2278
aV\u604d
aV\u987d\u56fa
p2279
aV\u7b49\u7b49
p2280
aV\u591c\u98a8
p2281
aV\u963b\u6321
p2282
aV\u88c5\u51fa
p2283
aV\u7b54\u6ef4\u7b54
p2284
aV\u60f3\u5bf9
p2285
aV\u8d1f\u8377
p2286
aV\u51e0\u4e4e
p2287
aV\u843d\u540e
p2288
aV\u63d2
aV\u5230\u4e86
p2289
aV\u9881\u5956
p2290
aV\u623f\u5b50
p2291
aV\u63a9\u62a4
p2292
aV\u6d6a\u8d39
p2293
aV\u6652\u5e72
p2294
aV\u5c0f\u9547
p2295
aV\u72af
aV\u6c61\u67d3
p2296
aV\u5f15\u64ce
p2297
aV\u9003\u907f
p2298
aV\u5174\u8da3
p2299
aV\u4e0b\u6025
p2300
aV\u786e\u5b9a
p2301
aV\u53cd\u9a73
p2302
aV\u5f39\u7434
p2303
aV\u6d77\u5e73\u9762
p2304
aV\u8bf7\u6c42
p2305
aV\u8f68\u9053
p2306
aV\u9690\u5bc6
p2307
aV\u963f
aV\u6d77\u98ce
p2308
aV\u7259\u6708
p2309
aV\u6316\u8349
p2310
aV\u670d
aV\u77f3\u818f
p2311
aV\u4f20\u51fa
p2312
aV\u62a4
aV\u7eb1\u888d
p2313
aV\u54c1\u5c1d
p2314
aV\u8584\u8377\u8272
p2315
aV\u6d41\u6c34
p2316
aV\u9910\u5385
p2317
aV\u51fa\u53d1
p2318
aV\u5f04\u810f
p2319
aV\u6d8c\u8d77
p2320
aV\u5543\u98df
p2321
aV\u6d41\u6c57
p2322
aV\u5c3c\u7f57\u6cb3
p2323
aV\u9ece\u660e
p2324
aV\u8d64\u9053
p2325
aV\u4f2f\u7235
p2326
aV\u5730\u5e73\u7ebf
p2327
aV\u65b9\u5411\u76d8
p2328
aV\u6df9\u6ca1
p2329
aV\u7ea6\u597d
p2330
aV\u63e1\u4f4f
p2331
aV\u6324
aV\u8072\u97f3
p2332
aV\u652f\u7b14
p2333
aV\u6bbf
aV\u94c1
aV\u71c3
aV\u8cb7
aV\u4e3a\u91cd
p2334
aV\u505c\u6b47
p2335
aV\u611f\u61c9
p2336
aVPick
p2337
aV\u5f39\u5531
p2338
aV\u9ecf\u624b
p2339
aV\u7897\u9762
p2340
aV\u9152\u5949
p2341
aV\u6d77\u7ed5
p2342
aV\u7530\u56ed
p2343
aV\u6d77\u9e25
p2344
aV\u7559\u4f4f
p2345
aV\u7edf
aV\u6a21\u62df
p2346
aV\u6000\u7591
p2347
aV\u94dc\u5e01
p2348
aV\u504f\u79bb
p2349
aV\u8fc7\u7a0b
p2350
aV\u76f4\u5347\u673a
p2351
aV\u53d4\u53d4
p2352
aV\u6f6e\u8d77\u6f6e\u843d
p2353
aV\u6d77\u9e1f
p2354
aV\u54ed\u4e45
p2355
aV\u827a\u672f
p2356
aV\u6175\u61d2
p2357
aV\u80a2
aV\u9375\u76e4
p2358
aV\u672c\u6765
p2359
aV\u5927\u8111
p2360
aV\u79cd\u79cd
p2361
aV\u796d\u53f8
p2362
aV\u7f8a\u76ae\u5377
p2363
aV\u623f\u95f4
p2364
aV\u8a93
aV\u597d\u542c
p2365
aV\u98ce\u66b4
p2366
aV\u4e2a\u6027
p2367
aV\u63cf\u8ff0
p2368
aV...
p2369
aV\u55ac\u514b
p2370
aV\u7948\u7977\u6587
p2371
aV\u5434\u4fac\u8f6f\u8bed
p2372
aV\u68a6\u9192
p2373
aV\u8fb9\u5883
p2374
aV\u95ed
aV\u4efb
aV\u6ee1\u6ee1
p2375
aV\u5582
aV\u6d41\u4e0b
p2376
aV\u5782\u9493
p2377
aV\u5199\u6210
p2378
aV\u600e\u6837
p2379
aV\u5c0f\u57ce
p2380
aV\u5530\u5530
p2381
aV\u679c\u9171
p2382
aV\u7a33
aV\u87d1\u8782
p2383
aV\u62c9\u626f
p2384
aV\u4f24\u900f
p2385
aV\u8fdb\u7403
p2386
aV\u5e74\u8f7b
p2387
aV\u4ea4\u8c08
p2388
aV\u62a5\u644a
p2389
aV\u4e0a\u8f66
p2390
aV\u9700
aVEND
p2391
aV\u4e91
aV\u80dc\u8d25
p2392
aV\u7b7e
aV\u5e74\u8f6e
p2393
aV\u793e\u4f1a
p2394
aV\u5916\u6ee9
p2395
aV\u96e8\u843d
p2396
aV\u5171\u9e23
p2397
aV\u65e0\u4e91
p2398
aV\u81ea\u5c0a
p2399
aV\u5927\u558a
p2400
aV\u96fe\u6c14
p2401
aV\u6a2a\u5207\u9762
p2402
aV\u8fd1\u4e61
p2403
aV\u82cd\u767d
p2404
aV\u9488\u53f6\u6797
p2405
aV\u8033\u8fb9
p2406
aV\u54c8\u5566
p2407
aV\u6ca1\u4e8b
p2408
aV\u70b9\u7f00
p2409
aV\u86cb\u7cd5
p2410
aV\u65f7\u91ce
p2411
aV\u6094
aV\u795e\u79d8
p2412
aV\u9a6f\u670d
p2413
aV\u5ba0\u7231
p2414
aV\u706d
aV\u5b89\u6170
p2415
aV\u5cb8\u8fb9
p2416
aV\u5bfb\u68a8
p2417
aV\u6025
aV\u8759\u8760
p2418
aV\u5bf9\u8c03
p2419
aV\u989c\u5524
p2420
aV\u7070\u72fc
p2421
aV\u4e0d\u80fd\u4e0d
p2422
aVAB
p2423
aV\u4ef0\u671b
p2424
aV\u95f7\u95f7
p2425
aV\u94f6\u6cb3
p2426
aV\u76d6
aV\u5e73\u8861
p2427
aV\u8ddf\u968f
p2428
aV\u7ba9
aV\u55dc\u597d
p2429
aV\u7a7a\u6d1e
p2430
aV\u540e\u955c
p2431
aV\u6446\u52a8
p2432
aV\u56f0\u60d1
p2433
aV\u5f85
aV\u5589
aV\u5c0f\u5fc3
p2434
aV\u4e00\u4e00
p2435
aV\u4efb\u6027
p2436
aV\u6218\u706b
p2437
aV\u5fd9\u788c\u5730
p2438
aV\u7bad
aV\u7d2e
aV\u64c2\u53f0
p2439
aV\u6574\u5f62
p2440
aV\u4e00\u7247
p2441
aV\u5165\u4fb5
p2442
aV\u90e8
aV\u5df4\u6d1b\u514b
p2443
aV\u6536\u5230
p2444
aV\u731c\u5230
p2445
aV\u4e0d\u5c0f\u5fc3
p2446
aV\u66ff
aV\u5bc2\u5be5
p2447
aV\u5e84
aV\u6b63\u90aa
p2448
aV\u996d\u5e97
p2449
aV\u901b
aV\u8170
aV\u541e\u566c
p2450
aV\u98d8\u6447
p2451
aV\u5c04\u8fdb
p2452
aV\u9ed1\u74e6
p2453
aV\u770b\u5b88
p2454
aV\u8f66\u91cc
p2455
aV\u64a4\u9000
p2456
aV\u5171
aV\u5473
aV\u5f97\u5206
p2457
aV\u5f13\u7bad
p2458
aV\u9508
aV\u798f\u97f3
p2459
aV\u6bc1\u574f
p2460
aV\u8ba8\u597d
p2461
aV\u5bf9\u6297
p2462
aV\u5f00\u59cb\u4e61
p2463
aV\u90aa\u543b
p2464
aV\u96d5\u82b1
p2465
aV\u82e6\u607c
p2466
aV\u5c0f\u94c1\u5320
p2467
aV\u7fd8
aVChou
p2468
aV\u82cd\u751f
p2469
aV\uff5e\u547d
p2470
aV\u795e\u5723
p2471
aV\u7ec3\u6210
p2472
aV\u5931\u793c
p2473
aVMusicMusic
p2474
aV\u5272
aV\u76f8\u4f9d
p2475
aV\u7981\u533a
p2476
aV\u62fd
aV\u5806\u79ef
p2477
aV\u5e05
aV\u8718\u86db
p2478
aV\u6811\u679d
p2479
aV\u6b87\u6b4c
p2480
aV\u82b1\u767d
p2481
aV\u5f2f
aV\u5b66\u751f
p2482
aV\u9b54\u754c
p2483
aV\u8c46\u74e3
p2484
aV\u88c5\u50bb
p2485
aV\u85e4\u8513
p2486
aV\u5347
aV\u61f7\u5ff5
p2487
aV\u820d\u5f97
p2488
aV\u5f39\u51fa\u8327
p2489
aV\u4e8c\u697c
p2490
aV\u6574\u7406\u54e5\u59d0
p2491
aV\u5948\u4f55
p2492
aV\u6253\u6ed1
p2493
aV\u6ce5\u9cc5
p2494
aV\u66b4\u96e8
p2495
aV\u6574\u5ea7
p2496
aV\u5b89\u8425\u624e
p2497
aV\u96e8\u70b9
p2498
aV\u91cd\u6e29
p2499
aV\u626d\u52a8
p2500
aV\u7816\u5899
p2501
aV\u5e18\u5e55
p2502
aV\u7ae0\u8282
p2503
aV\u60f3\u5230
p2504
aV\u7136\u800c
p2505
aV\u5c71\u9876
p2506
aV\u573a\u5916
p2507
aV\u5927\u96e8
p2508
aV\u5927\u58f0
p2509
aV\u6325\u6b63
p2510
aV\u5439\u5f39
p2511
aV\u4e16\u4e8b
p2512
aV\u6446\u5f04
p2513
aV\u6454
aV\u89c4\u5219
p2514
aV\u731c\u900f
p2515
aV\u73ab\u7470\u82b1
p2516
aV\u8eba
aV\u6280\u5de7
p2517
aV\u529b\u6b47\u58f0
p2518
aV\u6881\u5fc3\u9890
p2519
aV\u5728\u610f
p2520
aV\u8868
aV\u8bed\u54fc
p2521
aV\u6ca1\u5173\u7cfb
p2522
aV\u5938\u5f20
p2523
aV\u5b89\u5b89\u9759\u9759
p2524
aV\u6613
aV\u638f\u7a7a
p2525
aV\u56f0\u6270
p2526
aV\u76d2\u5b50
p2527
aV\u8bdd\u8bf4
p2528
aVBaby
p2529
aV\u5fc3\u5230
p2530
aV\u8eaf\u58f3
p2531
aV\u9a74
aV\u6cea\u58f0\u5165\u6797
p2532
aV\u5355\u5f71
p2533
aV\u5708\u966a
p2534
aV\u958b\u59cb
p2535
aV\u6587\u660e
p2536
aV\u98de\u8fc7
p2537
aV\u666f\u666f
p2538
aV\u51cc\u4e71
p2539
aV\u5575
aV\u9891\u7387
p2540
aV\u5f77\u4f5b
p2541
aV\u5f97\u51fa
p2542
aV*
aV\u5bf9\u4e0d\u8d77
p2543
aV\u626b\u628a
p2544
aV\u540a
aV\u5f80\u4e0b
p2545
aV\u7f18
aV\u5c1a
aV\u8d77\u70b9
p2546
aV\u8bfe\u684c\u6905
p2547
aV\u6728
aV\u63a5\u526a
p2548
aV\u5929\u95f9\u70ed\u311f
p2549
aV\u611f\u6fc0
p2550
aV\u7cbe\u795e
p2551
aV\u722a
aV\u8363\u8a89
p2552
aV\u63a0\u596a
p2553
aV\u90aa
aV\u8001\u4f2f
p2554
aV\u68a2
aV\u6da4
aV\u590d\u6742
p2555
aV\u6311
aV\u5c4f\u98ce
p2556
aV\u60e8
aV\u5403\u6389
p2557
aV\u614c\u5f20
p2558
aV\u575f\u5893
p2559
aV\u82e6\u82e6
p2560
aV\u63a0\u593a
p2561
aV\u5206\u6570
p2562
aV\u73fe\u5728
p2563
aV\u57fa\u4e8e
p2564
aV\u6577\u884d
p2565
aV\u7eb5\u7136
p2566
aV\u5206\u6563
p2567
aV\u5475
aV\u58a8
aV\u807d
aV\u50f5\u5c38\u8e72\u94bb
p2568
aV\u8fd8\u51fb
p2569
aV\u785d\u70df
p2570
aV\u62c9\u4e0a
p2571
aV\u8bb8\u613f
p2572
aV\u80af\u5b9a
p2573
aV\u8d70\u904e
p2574
aV\u82b1\u53f0
p2575
aV\u4e0a\u65b9
p2576
aV\u6d4b
aV\u62ac\u5934
p2577
aV\u6c34\u6676\u7403
p2578
aV\u6253\u6b7b
p2579
aV\u786c\u5e01
p2580
aV\u8457\u624b
p2581
aV\u76ef\u7740
p2582
aV\u961f\u53cb
p2583
aV\u601d\u8003
p2584
aV\u77f3\u9636
p2585
aV\u5f90\u82e5\u7444
p2586
aV\u6839
aV\u7ed9\u4e88
p2587
aV\u7c97\u5fc3
p2588
aV\u975e\u5e38
p2589
aV\u8ddf\u98ce
p2590
aV\u4e0b\u68cb
p2591
aV\u6c99\u6f20
p2592
aV\u5bbf\u820d
p2593
aV\u6253\u8d25
p2594
aV\u7a7a\u865a
p2595
aV\u8ff7\u8fed\u9999
p2596
aV\u6401\u4e0b
p2597
aV\u4f24\u60b2
p2598
aV\u660e\u4fe1\u7247
p2599
aV\u54c8\u54c8
p2600
aV\u8f7b\u76c8
p2601
aV\u629b\u7269\u7ebf
p2602
aV\u659c\u659c\u6620
p2603
aV\u5929\u5730
p2604
aV\u592a\u591a\u592a\u591a
p2605
aV\u642c\u7a7a
p2606
aV\u8d2a\u5a6a
p2607
aV\u53e4\u5821
p2608
aV\u8bf4\u8bf4
p2609
aV\u95e8\u7a97
p2610
aV\u547d\u540d
p2611
aV\u7ef4\u6301
p2612
aV\u6765\u88ad
p2613
aV\u9b54\u5760
p2614
aV\u5e8f\u53d8
p2615
aV\u51b0\u6dc7\u6dcb
p2616
aV\u5f00\u573a
p2617
aV\u52c7\u6562
p2618
aV\u65e7\u76ae\u7bb1
p2619
aV\u77ed\u4fe1
p2620
aV\u6b64
aV\u6811\u6797
p2621
aV\u722c\u6ee1
p2622
aV\u7eed
aV\u4ecb\u7ecd
p2623
aV\u5570
aV\u8ff7
aV\u7c73\u5170
p2624
aV\u5149\u5e74
p2625
aV\u5439\u98ce
p2626
aV\u5ba0\u574f
p2627
aV\u55b7\u6cc9
p2628
aV\u8d70\u4e0b\u4e61
p2629
aV\u56fd\u5c0f
p2630
aV\u5c06\u6765
p2631
aV\u5dee\u72e0\u8fdc
p2632
aV\u7687\u5e1d
p2633
aV\u53d8\u597d
p2634
aV\u684c
aV\u5e74\u5c11
p2635
aV\u897f\u585e
p2636
aV\u5974\u96b8
p2637
aV\u4e00\u9053
p2638
aV\u523a\u6fc0
p2639
aV\u9003\u79bb
p2640
aV\u6b62\u5e72
p2641
aV\u51cb\u96f6
p2642
aV\u5f81
aV\u7b11\u58f0
p2643
aV\u591c\u665a
p2644
aV\u79cb\u672b
p2645
aV\u987e\u95ee
p2646
aV\u5708\u8d77
p2647
aV\u70b9\u71c3
p2648
aV\u6392\u5f8a
p2649
aV\u7fbd\u6bdb
p2650
aV\u91ce\u725b
p2651
aV\u5305\u56f4
p2652
aV\u51ff\u51fa
p2653
aV\u534a\u5c71\u8170
p2654
aV\u65e5\u843d
p2655
aV\u4e39\u51e4\u773c
p2656
aV\u7cd7
aV\u773c\u524d
p2657
aV\u6c64
aV\u5c81\u672b
p2658
aV\u7b49\u96e8
p2659
aV\u6362\u53d6
p2660
aV\u80d6\u5973
p2661
aV\u613f
aV\u505c\u606f
p2662
aV\u5927\u6d77
p2663
aV\u756a
aV\u6797
aV\u7a7f\u900f
p2664
aV\u690d\u7269
p2665
aV\u9bae\u7d05
p2666
aV\u561b
aV\u987a\u65f6
p2667
aV\u501f
aV\u5c4b\u5185
p2668
aV\u9891\u9053
p2669
aV\u4e61\u6751
p2670
aV\u8fc8\u53ef
p2671
aV\u505a\u4e3a
p2672
aV\u5982\u679c\u8bf4
p2673
aV\u5728\u65c1
p2674
aV\u7d2f\u79ef
p2675
aV\u5357\u6781
p2676
aV\u516c\u4e3b
p2677
aV\u7070\u6070
p2678
aV\u65e0\u6240\u4e8b\u4e8b
p2679
aV\u5ae6\u5a25
p2680
aV\u70b9\u513f
p2681
aV\u53eb\u75db
p2682
aVLRC
p2683
aV\u6559\u80b2
p2684
aV\u788e\u7247
p2685
aV\u98d8\u626c
p2686
aV\u8721\u50cf
p2687
aV\u5730\u9762
p2688
aV\u300a
aV\u9759\u9759\u6084\u6084
p2689
aV\u719f
aV\u96b1
aV\u62d3
aV\u5587\u53ed
p2690
aV\u8840\u578b
p2691
aV\u5b58
aV\u52a0\u70b9
p2692
aV\u955c
aV\u7b11\u8bdd
p2693
aV\u6ee1\u6708
p2694
aV\u6253\u4e71
p2695
aV\u9677\u9631\u65cb\u6da1
p2696
aV\u70b9\u706b
p2697
aV\u6401\u6d45
p2698
aV\u6492
aV\u5f48\u7434
p2699
aV\u6e21
aV\u83ab\u540d\u5176\u5999
p2700
aV\u8fdb\u884c
p2701
aV\u811a\u5370
p2702
aV\u6ca6\u843d\u9762
p2703
aV\u7267\u573a
p2704
aV\u4f20\u9012
p2705
aV\u5185\u529b
p2706
aV\u5f00\u57a6
p2707
aV\u6668\u66e6
p2708
aV\u7eaf\u771f
p2709
aV\u5bf9\u8457
p2710
aV\u9ebb\u888b
p2711
aV\u95ea\u70c1
p2712
aV\u5305\u88c5
p2713
aV\u7b2c\u4e8c
p2714
aV\u5b88\u95e8\u4e4b\u517d\u5c55\u7ffc
p2715
aV\u7985\u5b9a
p2716
aV\u79c1\u85cf
p2717
aV\u65b7\u7fc5
p2718
aV\u77a5
aV\u7ebf\u4e58
p2719
aV\u7ec8\u7a76
p2720
aV\u8bd5\u63a2\u6027
p2721
aV\u6d9f\u6f2a
p2722
aV\u6c89\u7761
p2723
aV\u58bb
aV\u653b
aV\u82d7
aV\u767d\u836f
p2724
aV\u8d70\u58c1\u83ab
p2725
aV\u6f2b\u957f
p2726
aV\u7f6a
aV\u55e6
aV\u6d53\u8f6c\u6de1
p2727
aV\u8336\u9053
p2728
aV\u7ebf\u4e0a
p2729
aV\u95f9
aV\u5343\u5e74
p2730
aV\u62ff\u53bb
p2731
aV\u54ce\u5466
p2732
aV\u968f\u65f6\u968f\u5730
p2733
aV\u6cb9\u753b
p2734
aV\u62f3\u811a
p2735
aV\u9999\u6c14
p2736
aV\u7f8e\u5fb7
p2737
aV\u5f39\u9519
p2738
aV\u770b\u8fc7
p2739
aV\u5f62\u610f
p2740
aV\u5207\u5272
p2741
aV\u5237
aV\u6444\u5f71
p2742
aV\u56de\u7738
p2743
aV\u7b2c\u4e09
p2744
aV\u7834\u574f
p2745
aV\u53e3\u7434
p2746
aV\u624b\u81c2
p2747
aV\u7ffb\u8bd1
p2748
aV\u6240\u8c13
p2749
aV\u9976\u820c
p2750
aV\u6708\u4e0b\u9580
p2751
aV\u541b
aV\u5b89\u975c
p2752
aV\u7eb8\u5f20
p2753
aV\u6b66\u5668
p2754
aV\u6d2a\u656c\u5c27
p2755
aVFJR
p2756
aV\u70b9\u6ef4
p2757
aV\u906e\u96e8
p2758
aV\u9e3d\u5b50
p2759
aV\u58a8\u8272
p2760
aV\u5410\u7eb3\u5fc3
p2761
aV\u5973\u58f0:
p2762
aV\u9ec4\u4fca\u90ce
p2763
aV\u89c2\u5149
p2764
aV\u4eb2\u60c5
p2765
aV\u7ecf\u5e74
p2766
aV\u89c1\u9762
p2767
aV\u5206\u8eab
p2768
aV\u91cd\u7ec4
p2769
aV\u591f\u6df7
p2770
aV\u8282
aV\u8bf8\u845b\u4eae
p2771
aV\u6b22\u559c
p2772
aV\u660e\u5929
p2773
aV\u62d2\u7edd
p2774
aV\u94c3
aV\u95ea\u4eae
p2775
aV\u6574\u6761\u8857
p2776
aVocker
p2777
aV\u8273\u4e3d
p2778
aV\u5723\u5802
p2779
aV\u6210\u8d25
p2780
aV\u9ebb\u96c0
p2781
aV\u8543
aV\u4f4e\u8bc9
p2782
aV\u85cd\u8272
p2783
aV\u5893\u5730
p2784
aV\u53f0\u4e0b
p2785
aV\u7e7c\u7e8c
p2786
aV\u6342
aV\u663e\u5fae\u955c
p2787
aV\u522b\u592a
p2788
aV\u88ab\u52a8
p2789
aV\u901a\u5e38
p2790
aV\u63a8\u5411
p2791
aV\u4ee3\u4ef7
p2792
aV\u5730\u8868
p2793
aV\u906e\u9633
p2794
aV\u9ec4\u82b1
p2795
aV\u8f83
aV\u88c2\u75d5
p2796
aV\u725b\u9f41
p2797
aV\u5931\u624b
p2798
aV\u70ae
aV\u516c\u8f66
p2799
aV\u82e6\u7b11
p2800
aV\u6295\u964d
p2801
aV\u65f6\u4e3e\u624b
p2802
aV\u9519\u8eab\u800c\u8fc7
p2803
aV\u51a0\u8ecd
p2804
aV\u8f49\u8eab
p2805
aV\u5b8b
aV\u4e00\u683c
p2806
aV\u65e0\u52a9
p2807
aV\u6539\u9020
p2808
aV\u96e3
aV\u5185\u4f24
p2809
aV\u5175\u5bb6\u4e4b\u5e38
p2810
aV\u9a6c\u94b1\u5b50
p2811
aV\u5ddd\u695d\u5b50
p2812
aV\u5a18\u5b50\u5531
p2813
aV\u7eb8\u5c51
p2814
aV\u5634\u5df4
p2815
aV\u4e0d\u6025
p2816
aV\u94ae\u6263
p2817
aV\u83b2\u5b50
p2818
aV\u778e
aV\u683d\u79cd
p2819
aV\u8f66\u4e8c\u5e73\u4e03
p2820
aV\u57ce\u9547
p2821
aV\u8d35
aV\u997a
aV\u5e78\u8fd0
p2822
aV\u7709
aV\u5478
aV\u8759
aV\u5de8\u70ae:\u8bf6\u5406
p2823
aV\u6c5f
aV\u7535\u7ebf\u6746
p2824
aV\u7384\u6b66
p2825
aV\u5206\u7c7b
p2826
aV\u88c5\u9970
p2827
aV\u751c\u5ea6
p2828
aV\u591a\u5634
p2829
aV\u4e0a\u5b66
p2830
aV\u5531\u526f\u6b4c
p2831
aV\uff1c\u6cf0\u8bed
p2832
aV\u5f39\u836f
p2833
aV\u538b
aV\u8427\u90a6
p2834
aV\u5468\u6770\u502b
p2835
aV\u60b2\u50b7
p2836
aV\u82b1\u74e3
p2837
aV\u5564\u9152\u4f24
p2838
aV\u6765\u56de
p2839
aV\u597d\u610f
p2840
aV\u7a7a\u59d0
p2841
aVFantasy+
p2842
aV\u559d\u9189\u9152
p2843
aV\u67aa\u58f0
p2844
aV\u628a\u6232
p2845
aV\u6027
aV\u53f3\u624b
p2846
aV\u5df4\u638c
p2847
aV\u7cdc\u70c2
p2848
aV\u9a5a\u96aa
p2849
aV\u9ed1\u6708
p2850
aV\u88dd
aV\u4e00\u8138
p2851
aV\u516b\u5366
p2852
aV\u4e52\u4e53\u4e52\u4e53
p2853
aV\u9f9f\u82d3\u818f
p2854
aV\u5f39\u5b54
p2855
aV\u61c9\u8a72
p2856
aV\u6c38\u7231\u6770\u4f26
p2857
aV\u538b\u6291
p2858
aV\u50be\u57ce
p2859
aV\u592b\u4eba
p2860
aV\u8d77\u843d\u67b6
p2861
aV\u5e94
aV\u5ca9\u70e7\u5e97
p2862
aV\u67aa\u53e3
p2863
aV\u5e38\u8bf4\u4e56
p2864
aV\u7ea2\u96e8
p2865
aV\u4e49\u6c14
p2866
aV\u53e3\u5473
p2867
aV\u7528\u76e1
p2868
aV\u91c7
aV\u8001\u5e08\u5085
p2869
aV\u610f\u8bc6
p2870
aV\u7ed8\u753b
p2871
aV\u5f62\u6210
p2872
aV\u6dda\u6ef4.
p2873
aV\u7121
aV\u5f3a\u58ee
p2874
aV\u8fdb\u77ff\u5c42
p2875
aV\u611f\u6168
p2876
aV\u521b\u4f5c
p2877
aV\u62d6
aV\u751c\u7f8e
p2878
aV\u5077\u5403
p2879
aV\u67af\u4e95
p2880
aV\u5386\u7ecf
p2881
aV\u6587\u5c71
p2882
aV\u5f15\u5317
p2883
aV\u6495\u6389
p2884
aV\u98de\u51fa
p2885
aV\u5584\u6076
p2886
aV\u5b9d\u7269
p2887
aVdou
p2888
aV\u663e\u793a
p2889
aV\u72c2\u4e71
p2890
aV\u54bf\u5440
p2891
aV\u7528\u5175
p2892
aV\u98db
aV\u7a7f\u7740
p2893
aV\u6708\u5706
p2894
aV\u5d07\u6d0b
p2895
aV\u5f53\u6210
p2896
aV\u6cc9\u6c34
p2897
aV\u8c05\u89e3
p2898
aV\u4f4e\u543c
p2899
aV\u76ee\u7779
p2900
aV\u5821\u5792
p2901
aV\u5306\u5fd9
p2902
aV\u5f52
aV\u5ba2\u8231
p2903
aV\u5f20\u5b66\u53cb
p2904
aV\u6b32\u671b
p2905
aV\u91cd\u8981\u6027
p2906
aV\u5f15
aV\u7406\u60f3
p2907
aV\u6e10
aV\u4e0a\u8272
p2908
aV\u8f7b\u67d4
p2909
aV\u4e91\u5357
p2910
aV\u5199\u4fe1
p2911
aV\u6728\u9c7c
p2912
aV\u5feb\u9910
p2913
aV\u738b\u8d25\u5bc7
p2914
aV\u7948\u7977\u7740
p2915
aV\u4e00\u56de\u4e8b
p2916
aV\u5f92
aV\u9636\u6bb5
p2917
aV\u5403\u7cd6
p2918
aV\u559c\u597d
p2919
aV\u70df\u5473
p2920
aV\u76f8\u7247
p2921
aV\u5927\u59c6\u6307
p2922
aV\u63d0\u7434
p2923
aV\u7a7a\u5e2e
p2924
aV\u4e0d\u7136
p2925
aV\u91d1\u6208\u5bb3
p2926
aV\u6361\u5230
p2927
aV\u8bf4\u5230
p2928
aV\u7199\u6765\u6518\u5f80
p2929
aV\u8ff7\u60d1
p2930
aV\u6c88\u7761
p2931
aV\u597d\u770b
p2932
aV\u8d5a
aV\u800d\u72e0
p2933
aV\u519b\u5916\u5957
p2934
aV\u62b1\u6028
p2935
aV\u82f1\u6587
p2936
aV\u82cf\u5730\u9f99
p2937
aV\u6069\u60e0
p2938
aV\u81fa\u524d
p2939
aV\u72b6\u51b5
p2940
aV\u7f16\u9020
p2941
aV\u57ce\u6c60
p2942
aV\u4e34\u519b\u5e03\u9635
p2943
aV\u6b66\u9986
p2944
aV\u5148\u6765\u676f\u5976
p2945
aV\u8ba4\u517b
p2946
aV\u8349\u76ae
p2947
aVOVERTURE
p2948
aV\u4e0a\u5761
p2949
aV\u9526\u9ca4
p2950
aV\u8868\u626c
p2951
aV\u4f2a\u88c5
p2952
aV\u751c\u5934
p2953
aV\u5662
aV\u7968
aV\u6218\u8d25
p2954
aV\u521d\u6b65
p2955
aV\u8de8
aV\u98de\u96ea
p2956
aV\u626b\u5c04
p2957
aV\u6e5b\u84dd
p2958
aV\u72ec
aV\u98ce\u5439\u4e0d\u706d
p2959
aVfafade
p2960
aV\u96dc\u800d
p2961
aV\u8f6f\u76ae\u978b
p2962
aVla:zh
p2963
aV\u4e71\u77f3\u5806
p2964
aV\u4f5c\u795f
p2965
aV\u5507\u8bed
p2966
aV\u5c81\u5c81
p2967
aV\u4ece\u672a
p2968
aV\u524d\u9762
p2969
aV\u8e59
aV\u6253\u624b
p2970
aV\u7167\u4eae
p2971
aV\u6df7\u6fc1
p2972
aV\u91cd\u91cf
p2973
aV\u8102\u5473
p2974
aV\u9e7f\u8338
p2975
aV\u4eba\u4f53
p2976
aV\u523b\u610f
p2977
aV\u5854
aV\u9000\u8ba9
p2978
aV\u6536\u8baf\u53f7
p2979
aV\u5de5\u592b
p2980
aV\u91d1\u949f
p2981
aV\u5531\u53cd\u8c03
p2982
aV\u6479\u672c
p2983
aV\u968f\u53e3\u8bb2
p2984
aV\u51a5
aV\u7f29\u6210
p2985
aV\u59fb\u7f18
p2986
aV\u70df\u56f1
p2987
aV\u7ef4\u591a\u5229\u4e9a
p2988
aV\u5348\u540e\u5409
p2989
aV\u5348
aV\u4e0b\u5761
p2990
aV\u82c1\u8465......
p2991
aV\u5fae\u51c9
p2992
aV\u65e0\u53ef\u6551\u836f
p2993
aV\u7a0d\u5fae
p2994
aV\u7518\u4f1a
p2995
aV\u7ec6\u8282
p2996
aV\u6756
aV\u996e\u98df
p2997
aV\u4f7f\u547d\u611f
p2998
aV\u50bb\u7b11
p2999
aV\u661f\u79fb
p3000
aV\u5bb9\u8c8c
p3001
aV\u8170\u5e26
p3002
aV\u8a6d\u7570
p3003
aV\u74f7
aV\u53f9
aV\u9601\u697c
p3004
aV\u9ad8\u539f
p3005
aV\u624b\u67aa
p3006
aV\u7c21\u55ae
p3007
aV\u6682\u505c
p3008
aV\u8f68\u8ff9
p3009
aV\u9508\u8ff9
p3010
aV\u6ce1\u8299
p3011
aV\u5fc3\u4e2d
p3012
aV\u6d77\u6d0b
p3013
aV\u6742\u8a8c
p3014
aV\u597d\u83b1\u94a8
p3015
aV\u8001\u8001
p3016
aV\u6e05\u8106
p3017
aV\u9759\u6b62
p3018
aV\u6c89\u9189
p3019
aV\u9690\u79c1\u6743
p3020
aV\u6b3e\u65f6
p3021
aV\u843d
aV\u6de8
aV\u6e21\u8fc7
p3022
aV\u866b
aV\u606f
aV\u649e
aV\u5e7b
aV\u8e22\u592a
p3023
aV\u5939\u6742
p3024
aV\u59b9\u59b9
p3025
aV\u9053\u662f
p3026
aV\u98de\u821e
p3027
aV\u8861\u91cf
p3028
aV\u4e1c\u6c49
p3029
aV\u8bf4\u51fa
p3030
aV\u5080\u5121
p3031
aV\u8fce\u98ce
p3032
aV\u6253\u5012
p3033
aV\u5929\u6d41\u8fc7
p3034
aV\u7eff\u8349\u5982\u8335
p3035
aV\u5b89\u5168
p3036
aV\u529f\u6210\u540d\u5c31
p3037
aV\u68c0\u8d77
p3038
aVgia
p3039
aV\u8003\u5377
p3040
aV\u603b\u4e9b\u4e8b
p3041
aV\u7d71\u7d71
p3042
aV\u4e71\u63b0
p3043
aV\u72b9\u5982\u9b3c\u9b45\u822c
p3044
aV\u6025\u543c\u6edatia
p3045
aV\u66f3\u98ce\u94c3
p3046
aV\u9b3c
aV\u7ec3\u62f3
p3047
aV\u8ddf\u4e0d\u4e0a
p3048
aV\u4e0a\u5e1d
p3049
aV\u9023
aV\u5c71\u6797
p3050
aV\u8bef\u89e3
p3051
aV\u9b13
aV\u8f66\u6f2b
p3052
aV\u4e2d\u539f
p3053
aV\u9ec4\u6cb3
p3054
aV\u7537
aV\u53d1\u957f\u7403
p3055
aV\u82e5\u82b1\u6028\u8776
p3056
aV\u56e0\u6b64
p3057
aV\u8299\u84c9
p3058
aV\u8fc7\u5934
p3059
aV\u6e29\u70ed
p3060
aV\u4e0d\u5230
p3061
aV\u50b7\u5fc3
p3062
aV\u503e\u659c
p3063
aV\u5077\u7b11\u5462
p3064
aV\u80c6\u6302\u5ff5
p3065
aV\u53d6\u5de7
p3066
aV\u5934\u8111
p3067
aV\u4f59\u6689
p3068
aV\u871c\u8702
p3069
aV\u8173\u6b65
p3070
aV\u7709\u6bdb
p3071
aV\u7159\u6ec5
p3072
aV\u6c89\u4e39\u7530\u624b
p3073
aV\u4e2d\u6587\u5b57
p3074
aV/
aV\u5185\u655b
p3075
aV\u8fd0\u7b79\u5e37\u5e44
p3076
aV1983\u5e74
p3077
aV\u9670\u5f71
p3078
aV\u9b54\u8853\u5e2b
p3079
aV\u8868\u6f14
p3080
aV\u8361\u79cb\u5343
p3081
aV\u6cd5\u5178
p3082
aV\u6591\u767d
p3083
aV\u4e1c\u5199\u897f
p3084
aV\u4e3e\u8d77
p3085
aVPlus
p3086
aV\u5b5d\u656c
p3087
aV\u94c3\u54cd
p3088
aV\u7b49\u5e96\u4e01
p3089
aV\u8096\u50cf\u624d
p3090
aV\u8499\u53e4
p3091
aV\u81ea\u89c9
p3092
aV\u6625\u8054
p3093
aV\u5938\u5f35
p3094
aV\u9752\u950b
p3095
aV\u82cf\u683c\u5170
p3096
aV\u5bc4\u6210
p3097
aV\u6218\u4e8b
p3098
aV\u5fc3\u6001
p3099
aV\u7b7e\u540d
p3100
aV\u6218\u80dc
p3101
aV\u5634\u5507
p3102
aV\u5f25
aV\u60e8\u767d
p3103
aV\u5916\u516c
p3104
aV\u8fd0\u6c14
p3105
aV\u8bd1\u6587
p3106
aV\u5e95\u4e0b
p3107
aV\u6b63\u624b
p3108
aV\u6247
aV\u624b\u7a7a\u62f3
p3109
aV\u8349\u8393
p3110
aV\u592a\u7cdf
p3111
aV\u58f3\u88f9
p3112
aV\u6d17\u6fa1
p3113
aV\u964d\u6e29
p3114
aV\u6c38\u4e45
p3115
aV\u58a8\u9999\u4e0d\u9000
p3116
aV\u4efb\u7763\u4e8c
p3117
aV\u4f11\u610f
p3118
aV\u97f5\u5473
p3119
aV\u5e3d\u5b50
p3120
aV\u9f7f\u8568
p3121
aV\u620f\u9662
p3122
aV\u624e\u6839
p3123
aV\u77db\u76fe
p3124
aV\u54a9
aV\u5e95\u5b50
p3125
aV\u5149\u68cd\u8282
p3126
aV\u6f6e\u6c34
p3127
aV\u5e18\u5916\u82ad
p3128
aV\u7b14\u950b
p3129
aV\u4e00\u5929\u5230\u665a
p3130
aV\u4e91\u6389\u843d
p3131
aV...\u638c...\u957f...\u957f...
p3132
aV\u7f5a\u7ad9
p3133
aV\u79e6\u8154
p3134
aV\u5916\u90a6
p3135
aV\u836f\u82e6
p3136
aV\u98ce\u5199
p3137
aV\u51fb
aV\u76db\u8870\u4e5d\u5dde
p3138
aV\u9634\u8c0b
p3139
aV\u90a3\u9910\u8f66
p3140
aV\u5fc3\u5982\u7a7a
p3141
aV\u66ff\u8eab
p3142
aV\u767e\u5206\u4e4b\u4e03\u5341
p3143
aV\u5bc2\u9759
p3144
aV\u97f3\u53eb
p3145
aV\u4e8e
aV\u95a8
aV\u4e91\u7aef
p3146
aV\u5317\u5927
p3147
aV\u526a\u5f71
p3148
aV\u88e4
aV\u7f8e\u56fd
p3149
aV\u5f2f\u5f2f
p3150
aV\u865a\u4f2a
p3151
aV\u592a\u591a
p3152
aV\u96fe\u9690
p3153
aV\u6b7b\u795e
p3154
aV\u8f6c\u52a8
p3155
aV\u5f71\u72b9
p3156
aV\u4e0d\u5c11
p3157
aV\u738b\u671d
p3158
aV\u8bf4\u771f\u7684
p3159
aV\u8e22
aV\u5d07\u62dc
p3160
aV\u592a\u9ad8
p3161
aV\u4e0a\u53bb
p3162
aV\u5f00\u53bb
p3163
aV\u90ae\u62a5
p3164
aV\u5934\u70ae
p3165
aV\u67aa\u624b
p3166
aV\u4f5c\u7528
p3167
aV\u70e4\u8089
p3168
aV\u5bc6\u7e2b\u7e61
p3169
aV\u65e0\u53ef
p3170
aV\u4ed5\u5973
p3171
aV\u5632\u5f04
p3172
aV\u54fc\u54c8\u516e
p3173
aV\u63d0\u7b14
p3174
aV\u4e0d\u5c51
p3175
aV\u9020\u6210
p3176
aV\u6e38\u56de\u529b
p3177
aV\u5e73\u9759
p3178
aV\u8fed
aV\u670b\u53cb\u4eec
p3179
aV\u8ddd\u4eca
p3180
aV\u9634\u973e
p3181
aV\u7c73\u7f38
p3182
aV\u8840\u8272
p3183
aV\u6362\u6765
p3184
aV\u8ba1\u8f83
p3185
aV\u71d2
aV\u5927\u8863
p3186
aV\u9ab7\u9ac5\u5934
p3187
aV\u6405\u62cc
p3188
aV\u5f55\u97f3\u673a
p3189
aV\u76f8\u673a
p3190
aV\u672b\u65e5
p3191
aV\u4f20\u8f93
p3192
aV\u86ee\u529b
p3193
aV\u6700\u597d
p3194
aV\u5357
aV\u80d6
aV\u5c0f\u4f19\u5b50
p3195
aV\u5207\u7247
p3196
aVgi\u8c46
p3197
aV\u6b64\u523b
p3198
aV\u8d5e\u7f8e
p3199
aV\u5439\u4e71
p3200
aV\u591c\u534a
p3201
aV\u7ea2\u98d8\u9f99
p3202
aV\u809a\u767d
p3203
aV\u8bf1\u4eba
p3204
aV\u800d\u7334\u620f
p3205
aV\u8d70\u6765
p3206
aV\u53e5\u5b50
p3207
aV\u5c16\u6382
p3208
aV\u7efd\u653e
p3209
aV\u533b\u6cbb
p3210
aV\u5378\u4e0d\u4e0b
p3211
aV\u5fc3\u7406
p3212
aV\u6dda\u6c34
p3213
aV\u4f3c
aV\u5175\u620e
p3214
aV\u9084\u7d66
p3215
aV\u6fc0\u53d1
p3216
aV\u82ad\u857e\u821e
p3217
aV\u51fa\u6c14
p3218
aV\u70db\u706b\u4e0d\u5fcd\u82db\u8d23
p3219
aV\u6ca7\u6d77
p3220
aV\u644a\u5f00
p3221
aV\u8b66\u573a
p3222
aV\u65e0\u523b
p3223
aV\u575a\u5b9a
p3224
aV\u62c9\u98ce
p3225
aV\u5ba0
aV\u51ac
aV\u6c89\u5bc2
p3226
aV\u7b2c\u56db
p3227
aV\u603b\u8906\u770b\u65f3
p3228
aV\u524d\u5915
p3229
aV\u6293
aV\u65e0\u65f6
p3230
aV\u542c\u4e45
p3231
aV\u7b4b
aV\u589e\u52a0
p3232
aV\u8ff7\u8ff7
p3233
aV\u9753
aV\u4e3a\u96be
p3234
aV\u7261\u4e39
p3235
aV\u76ce\u7136
p3236
aV\u811a\u672c
p3237
aV\u62dc\u8bbf
p3238
aV\u524d\u594f
p3239
aV\u4e00\u81f4
p3240
aV\u539f\u56e0
p3241
aV\u7a81\u5140
p3242
aV\u6311\u8845
p3243
aV\u4e89\u5149
p3244
aV\u62a5\u7eb8
p3245
aV\u8fc2\u56de
p3246
aV\u5165\u95e8
p3247
aV\u6c49\u65b9
p3248
aV\u8d4c\u795e
p3249
aV\u767b\u4e0a
p3250
aV\u521b\u9020
p3251
aV\u666f\u70b9
p3252
aV\u7cfb\u4e0a
p3253
aV\u54c8\u54c8\u54c8
p3254
aV\u5f20\u5927
p3255
aV\u8840\u6db2
p3256
aV\u4e0d\u81ea\u7531
p3257
aV\u79cb\u5fc3\u62c6
p3258
aV\u7528\u9910
p3259
aV\u72b9\u5982
p3260
aV\u620e\u88c5
p3261
aV\u53cd\u624b
p3262
aV\u5077\u6458
p3263
aV\u5ff5\u5ff5
p3264
aV\u8f6c\u773c
p3265
aV\u767c
aV\u5475\u62a4
p3266
aVtia
p3267
aV\u8109
aV\u94c1\u5e8a
p3268
aV\u9727\u6c23
p3269
aV\u98ce\u5473
p3270
aV\u9e1f\u7b3c
p3271
aV\u780d
aV\u8272\u767d
p3272
aV\uff1e
aV\u597d\u4e8b
p3273
aV\u5012\u6570
p3274
aV\u64cd\u63a7
p3275
aV\u5c4b
aV\u5c71\u6cc9
p3276
aV\u4e0d\u592a
p3277
aV\u5224\u51b3
p3278
aV\u62db
aV\u7a7a\u624b\u51fa\u724c
p3279
aV\u5173\u706f
p3280
aV\u7891\u6587
p3281
aV\u4e1c\u897f
p3282
aV\u6c34\u9762
p3283
aV\u53d8\u8eab
p3284
aV\u82d4\u85d3
p3285
aV\uff0c
aV\u5317\u6597
p3286
aV\u6482
aV\u7403ki
p3287
aV\u62c9\u5f00
p3288
aV\u653e\u5927
p3289
aV\u77a7
aV\u51b7\u8840
p3290
aV\u4e2d\u836f
p3291
aV\u5de5\u4f5c
p3292
aV\u6643\u5230
p3293
aV\u5317\u65b9
p3294
aV\u4e09\u5341\u4e09
p3295
aV\u9a6c\u4e71
p3296
aV\u4e3a\u8363
p3297
aV\u67ef\u5357
p3298
aV\u8e22\u5f00
p3299
aV\u4e09\u5343\u4e03\u767e
p3300
aV\u90a3\u5c31\u662f
p3301
aV\u5de8\u70ae\u8868\u5f1f
p3302
aV\u80cc\u4e0a
p3303
aV\u53ef\u9760
p3304
aV\u56fd
aV\u57fa\u672c
p3305
aV\u5175\u8352
p3306
aV\u5145\u5206
p3307
aV\u5f8c
aV\u788e
aV\u6559\u6750
p3308
aV\u9a91\u58eb
p3309
aV\u7bad\u77e2\u6f2b\u5929
p3310
aV\u8170\u95f4
p3311
aV\u543c\u6eda
p3312
aV\u4ed8\u51fa
p3313
aV\u51dd\u7ed3
p3314
aV\u65b0
aV\u6084\u7136
p3315
aV\u82ad\u857e
p3316
aV\u8ffd\u5230
p3317
aV\u5f62\u8c61
p3318
aV\u6d41\u4f20
p3319
aV\u7ec7\u7ed9
p3320
aV\u767d\u79cd\u4eba
p3321
aV\u98ce\u5531
p3322
aV\u7a7a\u5730
p3323
aV\u83ab\u6e21\u6c5f
p3324
aV\u540c\u7559\u4f59
p3325
aV\u5371\u57ce
p3326
aV\u865a\u8363
p3327
aV\u8ba8
aV\u9879
aV\u4e94\u5343
p3328
aV\u98de\u5929
p3329
aV\u6c42\u6c42
p3330
aV\u53d6\u540d
p3331
aV\u5f52\u6765
p3332
aV\u54fc\u54fc\u54c8\u516e
p3333
aV\u8521\u5ead\u8d35
p3334
aV\u89c6\u91ce
p3335
aV\u6bd4\u4f26\u738b
p3336
aV\u51f6\u624b
p3337
aV\u8e31\u6b65
p3338
aV\u6821\u957f
p3339
aV\u59d4\u5a49
p3340
aV\uff5e
aV\u97f3\u7b26
p3341
aV\u9632\u5fa1
p3342
aV\u4eb2\u8fd1
p3343
aV\u65e0\u77e5
p3344
aV\u71d5
aV\u9f3b\u5b50
p3345
aV\u914d\u5bf9
p3346
aV\u6ca7\u6851
p3347
aV\u7334\u62f3
p3348
aV\u9508\u5374
p3349
aV\u9803\u523b
p3350
aV\u8863\u6adb\u6bd4\u9c57
p3351
aV\u8fd8\u6709
p3352
aV\u624b\u7535\u7b52
p3353
aV\u6e29\u99a8
p3354
aV\u96be\u602a
p3355
aV\u6ed1\u7a3d
p3356
aV\u6b8b\u6740
p3357
aV\u6e32\u67d3
p3358
aV\u5bf9\u8c61
p3359
aV\u7fe0\u7eff
p3360
aV\u5435\u6742
p3361
aV\u716e
aV\u4e13\u6cbb
p3362
aV\u4ee5\u524d
p3363
aVRap
p3364
aV\u6cbe\u6e7f
p3365
aV\u6416\u982d\u8f15\u5606
p3366
aV\u62c6\u4e0b
p3367
aV\u9886\u609f
p3368
aVMusic...
p3369
aV\u544a\u89e3
p3370
aV\u4e71\u591c
p3371
aV\u5fbd\u7ae0
p3372
aV\u89c2\u5bdf
p3373
aV\u5531\u6b4c
p3374
aV\u624b\u66f8
p3375
aV\u8239\u884c
p3376
aV\u627e\u56de
p3377
aV\u9ec4\u91d1
p3378
aV\u4e70\u5356\u4eba
p3379
aV\u4eb2\u4eba
p3380
aV\u8150\u70c2
p3381
aV\u9a6c\u795e\u534e
p3382
aV\u4e4c\u70df
p3383
aV\u6c42
aV\u5f85\u5c04
p3384
aVJ
aV\u53e4\u5df4
p3385
aV\u4e0d\u6015
p3386
aV\u6d41\u884c\u6b4c
p3387
aV\u5fcf\u6094
p3388
aV\u6a90
aV\u4ece\u4e0d\u611f
p3389
aV\u91cc\u5916
p3390
aV\u537b
aV\u5ba3\u7eb8
p3391
aV\u58f0\u54cd
p3392
aV\u534e\u4f57
p3393
aV\u65e0\u56de
p3394
aV\u65f6\u671f
p3395
aV\u5466\u55e8\u5466
p3396
aV\u6536\u5272\u671f
p3397
aV\u4eba\u6027
p3398
aV\u706b\u6c14
p3399
aV\u64b2\u514b\u724c
p3400
aV\u6b7b\u5df7
p3401
aV\u5220
aV\u76db\u8870
p3402
aV\u5b64\u706f\u4f2b\u7acb
p3403
aVdedefa
p3404
aV\u559c\u5267
p3405
aV\u8fde\u73af
p3406
aV\u4ece\u6765
p3407
aV\u591a\u6837
p3408
aV\u65e0\u53ef\u5948\u4f55
p3409
aV\u6587\u5316
p3410
aV\u6e38\u8361
p3411
aV\u5438\u5165
p3412
aV\u8ffd\u5bfb
p3413
aVCNN
p3414
aV\u6c34\u6c9f
p3415
aV\u753b\u6210
p3416
aV\u7a97\u53e3
p3417
aV\u6253\u98de
p3418
aV\u8001\u767e\u59d3
p3419
aV\u8def\u53e3
p3420
aV\u7761\u610f
p3421
aV\u6362\u624b
p3422
aV\u6652
aV\u4fdd\u6301
p3423
aV\u6491\u8d77
p3424
aV\u8001\u5b9e
p3425
aV\u5014\u5f3a
p3426
aV\u5e9f
aV\u7968\u623f
p3427
aV\u7eb8\u4e0a
p3428
aV\u6ecb\u5473
p3429
aV\u6a80\u9999
p3430
aV\u8d85\u597d
p3431
aV\u770b\u9f50
p3432
aV\u51fa\u9752
p3433
aV\u7275\u9f3b\u5b50
p3434
aV\u7d27\u7ef7
p3435
aV\u957f\u51fa
p3436
aV\u515c\u515c
p3437
aV\u56fd\u672f\u9986
p3438
aV\u97a0\u8eac
p3439
aV\u6389\u4e0b
p3440
aV\u4f20\u5531
p3441
aV\u5bfc\u6f14
p3442
aV\u60ca\u89c9
p3443
aV\u518d\u604b\u7231
p3444
aV\u4e1c\u4e9a\u75c5\u592b
p3445
aV\u9519\u90fd\u9ed8\u80cc
p3446
aV\u4e34\u65f6
p3447
aV\u949f\u5174\u6c11
p3448
aV\u4e00\u5169
p3449
aV\u5976\u7403
p3450
aV\u64c5\u957f
p3451
aV\u8bb6\u5f02
p3452
aV\u4e16\u4eba
p3453
aV\u6b62\u75db
p3454
aV\u7ee3\u82b1\u9488
p3455
aV\u706f\u4e0b
p3456
aV\u4f38\u5f20
p3457
aV\u94fa\u6ee1
p3458
aV\u82b1\u978b
p3459
aV\u5fd7
aV\u727a\u7272
p3460
aV\u6f02\u6d6e
p3461
aV\u4e0d\u654c
p3462
aV\u915d\u917f
p3463
aV\u653e\u624b\u4e00\u640f
p3464
aV\u521d\u7ea7
p3465
aV\u73a9\u547d.
p3466
aV\u906e\u6708
p3467
aV\u6d41\u8840
p3468
aV\u96c4
aV\u7559\u8a00
p3469
aV\u804b
aV\u63ed\u6653
p3470
aV\u57ce
aV\u5899\u89d2
p3471
aV\u9971
aV\u54fc\u54c8\u516e\u54fc
p3472
aV\u6eff\u5fc3
p3473
aV\u516b\u767e
p3474
aV\u63a8\u62d6
p3475
aV\u66f9\u9b4f\u67ad
p3476
aV\u6d77\u5cb8\u7ebf
p3477
aV\u75db\u75db
p3478
aV\u8003\u8bd5
p3479
aV\u5835\u4f4f
p3480
aV\u9f9f
aVki\u8bb0\u4ec7
p3481
aV\u6717gia
p3482
aV\u4e22\u8138
p3483
aV\u5468\u520a
p3484
aV\u9a9a\u6270
p3485
aV\u9ec4\u9ec4
p3486
aV\u751a\u81f3
p3487
aV\u82e6\u8877
p3488
aV\u843d\u5730
p3489
aV\u89d2\u8272
p3490
aV\u4e24\u6837
p3491
aV\u796d\u575b
p3492
aV\u5f00\u653e
p3493
aV\u90a3\u65f6\u5019
p3494
aV\u7559\u80ed
p3495
aV\u4e4c\u4e91
p3496
aV\u7d72\u6beb
p3497
aV\u516c\u5c3a
p3498
aV\u56e0\u7d20
p3499
aV\u6768\u5bb6\u67aa
p3500
aV\u6b65\u886b
p3501
aV\u4e1c\u5317
p3502
aV\u91dd\u91dd
p3503
aV\u7634\u6c14
p3504
aV\u9632\u8def
p3505
aV\u9634\u5f71
p3506
aV\u9762\u5b54
p3507
aV\u5c0f\u7eb8\u4f1e
p3508
aV\u6b27
aV\u542c\u542c
p3509
aV\u8e7a\u5439\u7b1b.
p3510
aV\u5212\u5206
p3511
aV\u8760\u4fe0
p3512
aV\u773c\u5f71
p3513
aV\u672c\u8349
p3514
aV\u6851
aV\u9a6c\u6b65\u5411\u524d
p3515
aV\u6182\u50b7
p3516
aV\u4e34\u6479
p3517
aV\u9019\u88e1
p3518
aV\u98a0\u5012
p3519
aV\u5076\u5c14
p3520
aV\u8ddf\u8e2a
p3521
aV\u7efc\u5408
p3522
aV\u82b1\u827a
p3523
aV\u4f53\u843d
p3524
aV\u5904\u7406
p3525
aV\u843d\u7a7a
p3526
aV\u862d\u4ead\u81e8\u5e16
p3527
aV\u518d\u5174
p3528
aV\u5316
aV\u653e\u6620
p3529
aV\u67d3\u7ea2
p3530
aV\u56f4\u5dfe
p3531
aV\u9f99\u6218
p3532
aV\u60f3\u54ed
p3533
aV\u8de8\u8d8a
p3534
aV\u8d64\u811a
p3535
aV\u6614
aV\u7956\u5b97
p3536
aV\u516c\u5f00
p3537
aV\u6770\u4f26:\u54ce\u5466
p3538
aV\u624b\u4e0a
p3539
aV\u53d1\u6761
p3540
aV\u9589\u4e0a
p3541
aV\u79cb\u5200\u9c7c
p3542
aV\u4e0a\u8bfe
p3543
aV\u4e71\u7bad
p3544
aV\u51fa\u751f
p3545
aV\u98d9\u5230
p3546
aV\u7d14
aV\u5408\u58f0:
p3547
aV\u7edd\u5bf9
p3548
aV\u51fa\u95e8
p3549
aV\u4e07\u9a6c\u5954\u817e
p3550
aV\u4e00\u5915
p3551
aV\u6df1\u591c
p3552
aV\u5185\u5fc3
p3553
aV\u672c\u6027
p3554
aV\u5f62\u52bf
p3555
aV\u906e\u51b0\u971c
p3556
aV\u641c\u5bfb
p3557
aV\u6c38\u65e0\u6b62\u5883
p3558
aV\u73a9\u5177
p3559
aV\u770b\u592a\u591a
p3560
aV\u5fd8\u8a18
p3561
aV\u5674
aV\u7126\u9ed1
p3562
aV\u7ec8
aV\u4e53
aV\u7a97\u8fb9
p3563
aV\u8ff7\u96fe
p3564
aV\u7c97\u7cd9
p3565
aV\u9001\u4eba
p3566
aV\u8dd1\u3017
p3567
aV\u8d8a\u5cad
p3568
aV\u9762\u5b50
p3569
aV\u5956\u9879
p3570
aV\u8bbf
aV\u9759\u5236
p3571
aV\u60e6\u8bb0
p3572
aV\u60f3\u7b11
p3573
aV\u7f18\u4efd
p3574
aV\u7267\u7b1b\u6a6b\u5439
p3575
aV\u9a6c\u8f66
p3576
aV\u8207
aV\u590f\u8349
p3577
aV\u9019\u6a23
p3578
aV\u7121\u61fc
p3579
aV\u843d\u9b44
p3580
aV\u9ad8\u8fc7
p3581
aVHandsomeCK
p3582
aV\u4e3e
aV\u6cb9\u58a8
p3583
aV\u9881\u5e03
p3584
aV\u4eba\u624d
p3585
aV\u7bf1\u82ad
p3586
aV\u72af\u9519
p3587
aV\u4e07\u4e00
p3588
aV\u6f14\u827a\u5708
p3589
aV\u4e07\u4e0d\u5f97\u5df2
p3590
aV\u63ac
aV\u62ff\u7ed9
p3591
aV\u4eab\u53d7
p3592
aV\u697c
aV\u94fa\u8def
p3593
aV\u5341\u4e00\u6708
p3594
aV\u624b\u91cc
p3595
aV\u4eb2\u5207
p3596
aV\u55a7\u56a3
p3597
aV\u51b3\u660e\u5b50
p3598
aV\u7ec6\u6c49
p3599
aV\u6697\u5df7
p3600
aV\u98d8\u5411
p3601
aV\u8eb2\u5230
p3602
aV\u5806\u780c
p3603
aV\u9897\u5584\u826f
p3604
aV\u5c0f\u72d7
p3605
aV\u87fe
aV\u65e0\u7455
p3606
aV\u597d\u51e0
p3607
aV\u59dc
aV\u5e73\u6c11
p3608
aV\u9152\u5427
p3609
aV\u90c1\u95f7
p3610
aV\u9690\u5c45
p3611
aV\u60e9\u7f5a
p3612
aV\u9ad8\u5174
p3613
aV\u4fa0\u4e49
p3614
aV\u4f55\u65b9
p3615
aV\u8def\u6807
p3616
aV\u886c\u6258
p3617
aV\u4e34\u5929\u4e0b
p3618
aV\u5077\u7aa5
p3619
aV\u4ecd\u7136
p3620
aV\u95e8\u73af
p3621
aV\u4eba\u5bb6
p3622
aV\u60f3\u5c04
p3623
aVV\u51fa
p3624
aV\u897f\u6d0b
p3625
aV\u95ee\u5e72
p3626
aV\u4e2d\u7a7a
p3627
aV\u8d1d\u514b\u8857
p3628
aV\u652c
aV\u5594\u5bf9
p3629
aV\u57ce\u63a0
p3630
aV\u61d0\u5538
p3631
aV\u6c49\u6469\u62c9\u6bd4
p3632
aV\u4e0b\u9a6c
p3633
aV\u97e9\u8bed
p3634
aV\u65e5\u4e0a
p3635
aV\u79d2\u949f
p3636
aV\u6b7b\u4ea1
p3637
aV\u54ed\u8bc9
p3638
aV\u58f3
aV\u5659\u6dda
p3639
aV\u9ec4\u836f\u5b50
p3640
aV\u5c06\u58eb
p3641
aV\u5305
aV\u7b28\u62d9
p3642
aV\u673a\u67aa
p3643
aV\u8346\u68d8
p3644
aV\u592a\u5a49\u8f6c
p3645
aV\u5931\u8e2a
p3646
aV\u84b8\u84b8
p3647
aV\u4e71\u6284
p3648
aV\u539a
aV\u8bc5\u5492
p3649
aV\u76ae\u5939
p3650
aV\u5954\u817e
p3651
aV\u56de\u53bb
p3652
aV\u4f54
aV\u82b1\u5b63
p3653
aV\u611f\u6027
p3654
aV\u7559\u4e0b
p3655
aV\u50be\u807d
p3656
aV\u62fc\u4e0a
p3657
aV\u6269\u5f20
p3658
aV\u5927\u5668
p3659
aV\u5a9a\u5916
p3660
aV\u6325\u5251
p3661
aV\u4e0a\u6d77
p3662
aV\u5524\u9192
p3663
aV\u7bad\u5934
p3664
aV\u502d\u54b1
p3665
aV\u5341\u5e74
p3666
aV\u8001\u7237
p3667
aV\u4e7e
aV\u5934\u7248
p3668
aV\u95f7\u6c14
p3669
aV\u4fe1\u606f
p3670
aV\u6f14\u5531
p3671
aV\u9999\u9999
p3672
aV\u81ea\u5e26
p3673
aV\u4e0b\u96e8
p3674
aV\u8682\u8681
p3675
aV\u4e2d\u5b66
p3676
aV\u4e86\u7136
p3677
aV\u9ed1\u591c
p3678
aV\u7c89\u5237
p3679
aVGuitar
p3680
aV\u56e0\u5730\u5236\u5b9c
p3681
aV\u5bf9\u6bd4
p3682
aV\u5fc5\u7136
p3683
aV\u5674\u706b
p3684
aV\u51e0\u5343
p3685
aV\u6709\u589e\u65e0\u51cf
p3686
aV\u57fa\u56e0
p3687
aV\u67d4\u5f31
p3688
aV\u653e\u6162
p3689
aV\u6f47\u6d12
p3690
aV\u8352\u5510
p3691
aV\u524a
aV\u7a3b\u8349\u4eba
p3692
aV\u94dc\u7eff
p3693
aV\u832b\u832b
p3694
aV\u541d\u556c
p3695
aV\u8001\u53bb
p3696
aVrap
p3697
aV\u8ff7\u7cca
p3698
aV\u50a8\u5b58
p3699
aV\u9019
aV\u671b\u7740\u5929
p3700
aV\u4e98\u53e4
p3701
aV\u6253\u597d
p3702
aV\u522b\u7684
p3703
aV\u5706\u5f62
p3704
aV\u65e0\u8c13
p3705
aV\u96e8\u843d\u4e0b\u96fe
p3706
aV\u53bb\u53bb
p3707
aV\u62ff\u5230
p3708
aV\u6ee1\u8db3
p3709
aV\u53c2\u5c55
p3710
aV\u63a8\u6572
p3711
aV\u8bef\u4f1a
p3712
aV\u5728\u4e8e
p3713
aV\u53f3\u94ed
p3714
aV\u53e3\u6c14
p3715
aV\u8c46\u5b50
p3716
aV\u624e
aV\u8981\u6c42
p3717
aV\u5185
aV\u9a6c\u8de8\u4e0d
p3718
aV\u5bfb\u5e38
p3719
aV\u5f27\u5ea6
p3720
aV\u6362\u4e0a
p3721
aV\u4e0d\u597d\u610f\u601d
p3722
aV\u770b\u597d
p3723
aV\u7597\u4f24
p3724
aV\u5b5f\u5b97\u7af9
p3725
aV\u8910\u8272
p3726
aV\u4f1f\u5927
p3727
aV\u8d70\u6389
p3728
aV\u4ea4\u754c
p3729
aV\u9593
aV\u7535\u89c6\u5267
p3730
aV\u8dc3\u7136\u4e8e
p3731
aV\u957f\u57ce
p3732
aV\u6b72\u6708
p3733
aV\u4f11
aV\u8f71\u8f98\u58f0
p3734
aV\u6d46\u7cca
p3735
aV\u80a4\u8272
p3736
aV\u5a49\u7d04
p3737
aV\u6cf0\u5c71
p3738
aV\u7a3b\u7a57
p3739
aV\u98de\u56de
p3740
aV\u8def\u8fc7
p3741
aV\u8f66\u5e05
p3742
aV\u754c\u9650
p3743
aV\u8d64
aV\u793a\u4e2a
p3744
aV\u72d7\u4ed4\u62cd
p3745
aVrui
p3746
aV\u8c6a\u60c5\u5982\u4f17
p3747
aV\u5e72\u561b
p3748
aV\u701f\u701f
p3749
aV\u54fc\u54fc\u54c8\u516e\u54fc
p3750
aV\u4eba\u7978
p3751
aV\u6b8b\u7f3a
p3752
aV\u8717\u725b
p3753
aV\u4e89\u8bba
p3754
aV\u53ee
aV\u94a9
aV\u5fe7\u6101
p3755
aV\u6bcf\u5f53
p3756
aV\u6b65\u4f10
p3757
aV\u6253\u8549\u8449
p3758
aV\u6e38\u5ba2
p3759
aV\u5deb\u5e08
p3760
aV\u547c\u5578
p3761
aV\u8b93
aV\u51b0\u4e0a
p3762
aV\u5bb6\u4eba
p3763
aV\u96d5\u8c22
p3764
aV\u6253\u62f3
p3765
aV\u5d29\u574f
p3766
aV\u963f\u90ce
p3767
aV\u62b9
aV\u8549\u60f9
p3768
aV\u9e22\u5c3e\u82b1
p3769
aV\u753b\u753b
p3770
aV\u7ffb\u5c71
p3771
aV\u7a00\u5947
p3772
aV\u96ea\u82b1
p3773
aV\u98ce\u8fb9
p3774
aV\u8fd8\u7ed9
p3775
aV\u5c4b\u9876
p3776
aV\u884c\u4eba
p3777
aV\u4e86\u5374
p3778
aV\u6298\u7eb8
p3779
aV\u543e
aV\u74f6\u8eab
p3780
aV\u8c26\u865a
p3781
aV\u5168\u65b0
p3782
aV\u5fc3\u5f00
p3783
aV\u5c0f\u670b\u53cb
p3784
aV\u4f9d\u7a00
p3785
aV\u65e0\u5fc3
p3786
aV\u8702\u871c
p3787
aV\u6c27\u6c14
p3788
aV\u53d1\u6296
p3789
aV\u8f6f\u6027
p3790
aV\u5fc3\u91cc
p3791
aV\u542d
aV\u5efa\u8bae
p3792
aV\u53e4\u8463\u8f66
p3793
aV\u5c34\u5c2c
p3794
aV\u5730\u5e26
p3795
aV\u6674\u6717
p3796
aV\u6cf0\u6664\u58eb
p3797
aV\u793c\u670d
p3798
aV\u94e9\u7fbd
p3799
aV\u5e7b\u5e7b
p3800
aV\u521d\u5986
p3801
aV\u76ee\u7684\u5730
p3802
aV\u8d70\u5b8c
p3803
aV\u684c\u4e0a
p3804
aV\u884c\u674e
p3805
aV\u4e8b\u8bb0
p3806
aV\u7801\u5934
p3807
aV\u83f8
aV\u4f38\u5c55
p3808
aV\u897f
aV\u5c18\u571f
p3809
aV\u73a9\u7ebf
p3810
aV\u8010
aV\u958b\u5fc3
p3811
aV\u7eb2\u76ee
p3812
aV\u5956\u72b6
p3813
aV\u96c1
aV\u7fc5
aV\u6307\u5411
p3814
aV\u7fd8\u81c0
p3815
aV\u5706\u5fc3
p3816
aV\u70db
aV\u9694\u7edd
p3817
aV\u8bb0\u8f7d
p3818
aV\u7687\u5ba4
p3819
aV\u7ad6\u8d77
p3820
aV\u96be\u9632
p3821
aV\u6392
aV\u6ee1\u610f
p3822
aV\u8222\u677f
p3823
aV\u56f4\u7740
p3824
aV\u6284\u5199
p3825
aV\u897f\u654f\u5bfa
p3826
aVOH
p3827
aV\u60b2\u6b22
p3828
aV\u5496\u5561\u4e0d\u52a0\u7cd6
p3829
aV\u53f0\u8bcd
p3830
aV\u8ffd\u4e0a
p3831
aV\u5687\u5230
p3832
aV\u5251
aV\u5e26\u523a
p3833
aV\u50bb\u74dc
p3834
aV\u543b\u522b
p3835
aV\u7a81\u6765
p3836
aV\u4e0d\u8d39
p3837
aV\u5ae3\u7136
p3838
aV\u6028
aV\u7eb7\u7eb7
p3839
aV\u8bf4\u4e2d
p3840
aV\u6a39\u679d
p3841
aV\u8bd7\u5316
p3842
aV\u4ffa
aV\u62fc
aV\u72d0\u8c8d
p3843
aV\u592a\u597d
p3844
aV\u9876\u5cf0
p3845
aV\u6740\u622e
p3846
aV\u5251\u6c14\u5982\u8679
p3847
aV\u519b
aV\u54ac\u5b57\u4e0d\u6e05
p3848
aV\u9690\u9690
p3849
aV\u7ffb\u5f00
p3850
aV\u8700
aV\u6697\u793a
p3851
aV\u65e0\u60e7
p3852
aV\u4ea4\u63a5
p3853
aV\u4e4b\u7c7b
p3854
aV\u969c\u773c\u6cd5
p3855
aV\u6c34\u58f6
p3856
aV\u80ae\u810f
p3857
aV\u751f\u610f
p3858
aV\u8f7b\u58f0
p3859
aV\u82b1\u513f
p3860
aV\u4ea4\u901a\u53f7
p3861
aV\u8336\u7ecf
p3862
aV\u5feb\u6a02
p3863
aV\u8521\u79d1\u4fca
p3864
aV\u6821
aV\u53bb\u5316
p3865
aV\u7f16\u5267
p3866
aV\u8fc7\u763e
p3867
aV\u52fe\u52d2
p3868
aV\u95ee\u53f7
p3869
aVABC
p3870
aV\u4e00\u8f88\u5b50
p3871
aV\u5189\u5189
p3872
aV\u80cc\u51b3\u6597
p3873
aV\u515c\u98ce
p3874
aV\u5306\u5306
p3875
aV\u6436\u8d70
p3876
aV\u6e9c\u6ed1\u68af
p3877
aV\u836f\u7269
p3878
aV\u9f99\u5f62
p3879
aV\u8fd9\u9ebc
p3880
aV\u5149\u8363
p3881
aV\u5939\u5fc3
p3882
aV\u677f
aV\u5c04
aV\u590d\u53e4
p3883
aV\u95ea\u7535
p3884
aV\u53ef\u601c
p3885
aV\u997c\u5e72
p3886
aV\u96fe\u6563
p3887
aV\u503c\u5f97
p3888
aV\u4e66\u5199
p3889
aV\u7a7a\u7a7a\u8361\u8361
p3890
aV\u957f\u5b89
p3891
aV\u6eda\u5230
p3892
aV<
aV\u4eba\u9593
p3893
aV\u95ee\u5019
p3894
aV\u9762
aV\u6731\u7802
p3895
aV\u52db
aV\u4e3b\u52a8
p3896
aV\u77ed\u88d9
p3897
aV\u8bcd\u6c47
p3898
aV\u6389\u843d
p3899
aV\u8d1d\u58f3
p3900
aV\u786c
aV\u773c\u770b
p3901
aV\u957f\u7bc7
p3902
aV\u5564\u9152
p3903
aV\u6bcd\u4eb2\u8282
p3904
aV\u7d05
aV\u3007
aV\u8c03\u9ad8
p3905
aV\u5200\u5272
p3906
aV\u773c\u7403
p3907
aV\u7d27\u540e
p3908
aV\u4e11\u964b
p3909
aV\u53ef\u60b2
p3910
aV\u8981\u9003\u547d
p3911
aV\u4fa6\u63a2
p3912
aV\u60c6\u6005
p3913
aV\u7cfb
aV\u98ce\u6797\u706b\u5c71
p3914
aV\u5929\u9e45
p3915
aV\u76fc\u671b
p3916
aV\u97f3\u4fe1
p3917
aV\u5915\u967d
p3918
aV\u6c99\u888b
p3919
aV\u53d8\u7684
p3920
aV\u7d20\u80da
p3921
aV\u725b\u5543\u8349
p3922
aV\u6a61\u76ae
p3923
aV\u9519\u4e8f
p3924
aV\u85e4\u539f
p3925
aV\u77b3
aV\u7a3b\u57cb
p3926
aV\u671d\u5ef7
p3927
aV\u67d3
aV\u7530\u91cc\u8ffd\u873b\u8713
p3928
aV\u914b\u957f
p3929
aV\u8138\u86cb
p3930
aV\u6ce5
aV\u6668\u9732
p3931
aV\u4e0b\u624b
p3932
aV12\u6708
p3933
aV\u5b78\u6703
p3934
aV\u5beb
aV\u91c9\u8272
p3935
aV\u8fb9\u7586
p3936
aV\u5370
aV\u751f\u6001
p3937
aV\u592a\u8584
p3938
aV\u7ec6\u5fae
p3939
aV\u9020\u53e5
p3940
aV\u675c\u838e
p3941
aV\u5c42
aV\u63a5\u543b
p3942
aV\u7164\u6cb9
p3943
aV\u968f\u8eab
p3944
aV\u5c4b\u9802
p3945
aV\u6b66\u672f
p3946
aV\u866b\u9e23
p3947
aV\u6127
aV\u65b0\u4eba
p3948
aV\u5b69\u5b50
p3949
aV\u6697\u7bad
p3950
aV\u8654\u8bda\u70b9
p3951
aV\u984f\u6599
p3952
aV\u79bb\u573a
p3953
aV\u4e39
aV\u7030\u6f2b
p3954
aV\u67f4
aV\u804a
aV\u91cd\u94c1
p3955
aVGray
p3956
aV\u6ca1\u7a7a
p3957
aV\u5e73\u5267
p3958
aV\u89aa\u611b\u7684
p3959
aV\u6253\u6cd5
p3960
aV\u4e07\u9a6c\u4e07
p3961
aV\u4e0a\u626c
p3962
aV\u5bfb\u56de
p3963
aV\u6977
aV\u8d70\u9053
p3964
aV\u6c34\u679c
p3965
aV\u9690\u53bb
p3966
aV\u7a7a\u66e0
p3967
aV\u672c\u4e8b
p3968
aV\u789f
aV\u670d\u88c5
p3969
aV\u54ea\u4e2a
p3970
aV\u663e\u773c
p3971
aV\u542b\u82de
p3972
aV\u5439\u594f
p3973
aV\u9ad8\u7ea7
p3974
aV\u5c0f\u5b66
p3975
aV\u7ec6\u817b
p3976
aV\u753b\u91cc
p3977
aV\u51c9
aV\u6731\u7ea2\u8272
p3978
aV\u8309\u8389
p3979
aV\u5341\u56db
p3980
aV\u7537\u4eba
p3981
aV\u5de6\u94a9\u62f3
p3982
aV\u6297\u8861
p3983
aV\u8c6a\u6770
p3984
aV\u58f0\u52bf
p3985
aV\u7aef
aV\u53d8\u51fa
p3986
aV\u6c57\u6c34
p3987
aV\u9c9c\u7ea2
p3988
aV\u77f3\u6960
p3989
aV\u7530\u91cc\u719f\u900f
p3990
aV\u5f48\u6307
p3991
aV\u5468\u6da6\u53d1
p3992
aV\u5730\u56fe
p3993
aV\u7897\u5e95
p3994
aV\u542c\u591c
p3995
aV\u5173\u6000
p3996
aV\u555c\u6ce3\u58f0
p3997
aV\u76ae
aV\u91cd\u6e38
p3998
aV\u75b2\u5026
p3999
aV\u8bba
aV\u5174
aV\u4f4d
aV\u6551
aV\u65e0\u6570
p4000
aV\u5806\u7c4d
p4001
aV\u6050\u6015
p4002
aV\u67d4\u514b\u521a
p4003
aV\u6728\u5c4b
p4004
aV\u573a\u901f\u653b\u4e52
p4005
aV\u6697\u604b
p4006
aV\u884c\u4e91\u6d41\u6c34
p4007
aV\u5e08\u751f
p4008
aV\u5c06\u519b
p4009
aV\u5370\u91d1
p4010
aV\u7b2c\u4e8c\u5341\u516d
p4011
aV\u8c01\u77e5
p4012
aV\u59cb\u7ec8\u5982\u4e00
p4013
aV\u6bdb\u6bef
p4014
aV>
aV\u4e0a\u5934
p4015
aV\u7b28\u5230
p4016
aV\u4e38
aV\u5e7b\u50cf
p4017
aV\u52a8\u611f
p4018
aV\u5168\u4f53
p4019
aV\u786e
aV\u8857\u5934
p4020
aV\u8001\u5bb6
p4021
aV\u5e74\u540e
p4022
aV\u51a0\u519b
p4023
aV\u884c\u66f8
p4024
aV\u9ec3
aV\u8bec\u8d56
p4025
aV\u73e0\u5b9d\u7bb1
p4026
aV\u5929\u707e
p4027
aV\u5c0f\u83dc
p4028
aV\u6708\u4eae
p4029
aV\u7ffb\u8fc7
p4030
aV\u8bd5\u63a2
p4031
aV\u5c41
aV\u60f3\u9003\u5f00
p4032
aV\u9cd6
aV\u9646\u7fbd
p4033
aV\u6028\u61df
p4034
aV\u91cd\u89c6
p4035
aV\u7121\u60c5
p4036
aV\u601c\u60af
p4037
aV\u8a3b\u610f
p4038
aV\u77e5\u8bc6
p4039
aV\u6d82\u4e0a
p4040
aV\u5bf9\u65b9
p4041
aV\u8fd9\u624d
p4042
aV\u9047\u4e0a
p4043
aV\u60f3\u5f53\u7136\u5c14
p4044
aV\u6362\u56de
p4045
aV\u7eff\u610f
p4046
aV\u665a\u70b9
p4047
aV\u597d\u5947
p4048
aV\u9047\u5230
p4049
aV\u5929\u547d
p4050
aV\u9178\u6027
p4051
aV\u5f00\u8f66
p4052
aV\u4e0d\u4fbf
p4053
aV\u83ab\u6025
p4054
aV\u6709\u8da3
p4055
aV\u8f66\u64e6
p4056
aV\u9000\u7f29
p4057
aV\u6765\u8bd5\u63a2
p4058
aV\u610f\u56fe
p4059
aV\u6c34\u4e00\u65b9
p4060
aV\u94c1\u6c99
p4061
aV\u96cf\u83ca
p4062
aV\u706f\u5149
p4063
aV\u98ce\u6643
p4064
aV\u7ed9\u64e6
p4065
aV\u5bb9\u6613
p4066
aV\u4e2d\u56fd\u98ce
p4067
aV\u6c34\u64c0\u9762
p4068
aV\u7fe0\u843d
p4069
aV\u4e92\u76f8
p4070
aV\u6751
aV\u6625\u96f7
p4071
aV\u6807\u9898
p4072
aV\u9ebc
aV\u9006\u5883
p4073
aV\u5439\u5b8c
p4074
aV\u4fdd\u80b2
p4075
aV\u95f2
aV\u5c41\u5575
p4076
aV\u8d5b\u4e9a
p4077
aV\u51fa\u5176\u4e0d\u610f
p4078
aV\u5606
aV\u52fe\u51fa
p4079
aV\u8543\u8304
p4080
aV\u5173\u6389
p4081
aV\u5e16
aV\u627f\u8ba4
p4082
aV\u4fc3\u8fdb
p4083
aV\u5bfa\u9662
p4084
aV\u82b1\u9752
p4085
aV\u5929\u751f
p4086
aV\u7d30
aV\u6401
aV\u9ebc.\u6703
p4087
aV\u81ea\u7531\u81ea\u5728
p4088
aV\u9632\u706b\u5df7
p4089
aV\u5199\u8bcd
p4090
aV\u7eaf\u6d01
p4091
aVyeah
p4092
aV\u70b9\u70b9
p4093
aV\u77f3\u677f
p4094
aV\u5634\u561f\u561f
p4095
aV\u80dc\u4e8e
p4096
aV\u634f\u6210
p4097
aV\u4e1c\u5434
p4098
aV\u82cd\u8033\u5b50
p4099
aV\u98ce\u6781\u901f
p4100
aV\u53eb\u9192
p4101
aV\u53f3
aV\u63cf\u7ed8
p4102
aV\u771f\u8de1
p4103
aV\u5347\u72fc
p4104
aV\u9686
aV\u8fc7\u901d
p4105
aV\u6635\u79f0
p4106
aV\u54b1
aV\u6f6e\u6c50
p4107
aV\u7a91\u70e7
p4108
aV\u6ce1\u6ce1\u6d74
p4109
aV\u7ba1\u5f26\u4e50
p4110
aV\u4e0b\u8bfe
p4111
aV\u4fa0
aV\u524a\u94c1
p4112
aV\u70df\u6597
p4113
aV\u521a\u6458
p4114
aV\u5267\u573a
p4115
aV\u8eab\u4e0a
p4116
aV\u4e00\u65f6
p4117
aV\u661f\u8054\u7ed3
p4118
aV\u9a82\u4eba
p4119
aV\u9a7e\u9a6d
p4120
aV\u6591\u6591
p4121
aV\u8865
aV\u73cd\u91cd
p4122
aV\u9971\u6ee1
p4123
aV\u514d\u7a0e\u54c1
p4124
a.